mads 2.0.4 build 4 (28 Mar 16)
Source: D:\!Atari\Pang_2\tour_map\mapa.asm
     1 				/***************************************/
     2 				/*  Use MADS http://mads.atari8.info/  */
     3 				/*  Mode: DLI (char mode)              */
     4 				/***************************************/
     5
     8 					opt l+
     9
    10 					org $e0
    11
    12 = 00E0			tmp	.ds 1
    13 = 00E1			fcnt	.ds 2
    14 = 00E3			fadr	.ds 2
    15 = 00E5			fhlp	.ds 2
    16 = 00E7			cloc	.ds 1
    17 = 00E8			regA	.ds 1
    18 = 00E9			regX	.ds 1
    19 = 00EA			regY	.ds 1
    20
    21 = 00EB			zpage	.ds 1
    22
    23 					.print *
    23 				$00EC
    24
    25 = 0028			WIDTH	= 40
    26 = 001B			HEIGHT	= 27
    27
    28 				; ---	MAIN PROGRAM
    29 					org $2000
    30
    31 FFFF> 2000-3A87> 00 00 + fnt	ins "mapa_OK.fnt",0,5*1024+80*8
    32
    33 3680 70			ant	dta $70
    34 3681 70 44 A0 36 04 04 + 	dta $70,$44,a(scr),$04,$04,$04,$84,$84,$84,$84,$04,$04,$84,$04,$84,$84,$04
    35 3693 84 84 84 04 84 84 + 	dta $84,$84,$84,$04,$84,$84,$84,$84,$84,4
    36 369D 41 80 36			dta $41,a(ant)
    37
    38 36A0 02 03 04 85 86 87 + scr	ins "mapa_OK.scr"
    39
    40 = 3A88				.ds 40*2
    41
    42 3AD8			main
    43 				; ---	init PMG
    44
    45 3AD8-5582> AD 0B D4 D0 + 	lda:rne vcount
    46
    47 					ift USESPRITES
    48 3ADD A9 00 8D 07 D4		mva >pmg pmbase		;missiles and players data address
    49 3AE2 A9 03 8D 1D D0		mva #$03 pmcntl		;enable players and missiles
    50 					eif
    51
    52 3AE7 78				sei			;stop IRQ interrupts
    53 3AE8 A9 00 8D 0E D4		mva #$00 nmien		;stop NMI interrupts
    54 3AED 8D 00 D4			sta dmactl
    55 3AF0 A9 FE 8D 01 D3		mva #$fe portb		;switch off ROM to get 16k more ram
    56
    57 3AF5 A9 72 8D FA FF A9 + 	mwa #NMI $fffa		;new NMI handler
    58
    59 3AFF 20 73 49			jsr fade_chars.init
    60
    61
    62 				// --------------------------------------------------------------------------------------
    63 				//	wylaczenie wszystkich kulek
    64 				// --------------------------------------------------------------------------------------
    65
    66 3B02 A9 0B 85 E0			mva #11 tmp
    67
    68 3B06 A6 E0		loop0	ldx tmp
    69
    70 3B08 20 93 3C			jsr set_jsr
    71
    72 3B0B 18 AD B1 3C 69 02 + 	adw _jsr #2
    73
    74 3B19 A9 00			lda #0
    75
    76 3B1B 20 B0 3C			jsr set_val
    77
    78 3B1E C6 E0			dec tmp
    79 3B20 10 E4			bpl loop0
    80
    81
    82 				// --------------------------------------------------------------------------------------
    83 				//	zapalenie kulek wg levelu
    84 				// --------------------------------------------------------------------------------------
    85
    86 3B22 AE B8 5A			ldx nstage
    87 3B25 F0 20			beq skp
    88
    89 3B27 8E 44 3B			stx max
    90
    91 3B2A A9 20 8D B0 3C		mva #{jsr} set_val
    92
    93 3B2F A9 00 85 E0			mva #0 tmp
    94
    95 3B33 A6 E0		loop2	ldx tmp
    96
    97 3B35 20 93 3C			jsr set_jsr
    98
    99 3B38 A2 0C			ldx #$0c
   100 3B3A A0 06			ldy #$06
   101
   102 3B3C 20 B0 3C			jsr set_val
   103
   104 3B3F E6 E0			inc tmp
   105 3B41 A5 E0			lda tmp
   106 3B43 C9 00			cmp #0
   107 = 3B44			max	equ *-1
   108 3B45 D0 EC			bne loop2
   109
   110 3B47			skp
   111
   112 				// --------------------------------------------------------------------------------------
   113 				// --------------------------------------------------------------------------------------
   114
   115 3B47 A9 C0 8D 0E D4		mva #$c0 nmien		;switch on NMI+DLI again
   116
   117 3B4C A9 01			lda #1
   118 3B4E 20 F4 48			jsr fade_chars
   119
   120 					wait #16
   120 				 LDX# 16\ JSR WAIT
   120 3B51 A2 10		 LDX# 16
   120 3B53 20 E4 3B		 JSR WAIT
   121
   122 				// --------------------------------------------------------------------------------------
   123 				//	zapalenie nowej kulki
   124 				// --------------------------------------------------------------------------------------
   125
   126 3B56 A9 4C 8D B0 3C		mva #{jmp} set_val
   127
   128 3B5B AE B8 5A			ldx nstage
   129 3B5E 86 E0			stx tmp		; nr aktualnego levelu
   130
   131 3B60 A6 E0			ldx tmp
   132
   133 3B62 20 93 3C			jsr set_jsr
   134
   135 3B65 A9 1A		lpcl0	lda #$1a
   136 = 3B66			cl0	equ *-1
   137 3B67 C9 1F			cmp #$1f
   138 3B69 F0 12			beq st0
   139 3B6B AA				tax
   140 3B6C A8				tay
   141
   142 3B6D 20 B0 3C			jsr set_val
   143
   144 					wait #1
   144 				 LDX# 1\ JSR WAIT
   144 3B70 A2 01		 LDX# 1
   144 3B72 20 E4 3B		 JSR WAIT
   145
   146 3B75 EE 66 3B			inc cl0
   147 3B78 4C 65 3B			jmp lpcl0
   148
   149 3B7B 1F			k0	dta $1f
   150 3B7C 1F			k1	dta $1f
   151
   152 3B7D AE 7B 3B		st0	ldx k0
   153 3B80 E0 0E			cpx #$e
   154 3B82 F0 03			seq
   155 3B84 CE 7B 3B			dec k0
   156
   157 3B87 AC 7C 3B			ldy k1
   158 3B8A C0 24			cpy #$24
   159 3B8C F0 03			seq
   160 3B8E EE 7C 3B			inc k1
   161
   162 3B91 20 B0 3C			jsr set_val
   163
   164 					wait #1
   164 				 LDX# 1\ JSR WAIT
   164 3B94 A2 01		 LDX# 1
   164 3B96 20 E4 3B		 JSR WAIT
   165
   166 3B99 AD 7B 3B			lda k0
   167 3B9C C9 0E			cmp #$e
   168 3B9E F0 03			seq
   169 3BA0 4C 7D 3B			jmp st0
   170
   171 3BA3			st1
   172
   173 3BA3 A9 20 8D B0 3C		mva #{jsr} set_val
   174
   175 3BA8 A2 0E			ldx #$0e
   176 3BAA A0 24			ldy #$24
   177 3BAC 20 B0 3C			jsr set_val
   178
   179
   180 				// --------------------------------------------------------------------------------------
   181 				// --------------------------------------------------------------------------------------
   182 					
   183 3BAF AD 10 D0		_lp	lda trig0		; FIRE #0
   184 3BB2 F0 13			beq stop
   185
   186 3BB4 AD 11 D0			lda trig1		; FIRE #1
   187 3BB7 F0 0E			beq stop
   188
   189 3BB9 AD 1F D0			lda consol		; START
   190 3BBC 29 01			and #1
   191 3BBE F0 07			beq stop
   192
   193 3BC0 AD 0F D2			lda skctl
   194 3BC3 29 04			and #$04
   195 3BC5 D0 E8			bne _lp			;wait to press any key; here you can put any own routine
   196
   197 3BC7			stop
   198 					.ifdef FADE_CHARS\ lda #0\ jsr fade_chars\ eif
   198 					.IFDEF FADE_CHARS
   198 3BC7 A9 00		 LDA #0
   198 3BC9 20 F4 48		 JSR FADE_CHARS
   198 				 EIF
   199
   200 3BCC A9 00 8D 1D D0		mva #$00 pmcntl		;PMG disabled
   201 3BD1 AA				tax
   202 3BD2 9D 00 D0 E8 D0 FA		sta:rne hposp0,x+
   203
   204 3BD8 A9 FF 8D 01 D3		mva #$ff portb		;ROM switch on
   205 3BDD A9 40 8D 0E D4		mva #$40 nmien		;only NMI interrupts, DLI disabled
   206 3BE2 58				cli			;IRQ enabled
   207
   208 3BE3 60				rts			;return to ... DOS
   209
   210 				/* -------------------------------------------------------------------------------------- */
   211 				/* -------------------------------------------------------------------------------------- */
   212
   213 3BE4			wait	.proc (.byte x) .reg
   214 3BE4 A5 E7 C5 E7 F0 FC	loop	lda:cmp:req cloc
   215 3BEA CA				dex
   216 3BEB D0 F7			bne loop
   217 3BED 60				rts
   218 					.endp
   219
   220
   221 3BEE			plot	.proc (.byte x,y)	.reg
   222 				/*
   223 					inc step
   224
   225 					lda #0
   226 				step	equ *-1
   227 					and #3
   228 					seq
   229 					rts
   230 				*/
   230
   231 3BEE 8E 16 3C			stx rX
   232 3BF1 8C 18 3C			sty rY
   233
   234 3BF4 88				dey
   235 3BF5 20 1A 3C			jsr _plot
   236
   237 3BF8 AE 16 3C			ldx rX
   238 3BFB AC 18 3C			ldy rY
   239 3BFE C8				iny
   240 3BFF 20 1A 3C			jsr _plot
   241
   242 3C02 AE 16 3C			ldx rX
   243 3C05 AC 18 3C			ldy rY
   244 3C08 CA				dex
   245 3C09 20 1A 3C			jsr _plot
   246
   247 3C0C AE 16 3C			ldx rX
   248 3C0F AC 18 3C			ldy rY
   249 3C12 20 1A 3C			jsr _plot
   250
   251 3C15 A2 00			ldx #0
   252 = 3C16			rX	equ *-1
   253 3C17 A0 00			ldy #0
   254 = 3C18			rY	equ *-1
   255
   256 3C19 60				rts
   257 				.endp
   258
   259
   260 3C1A			_plot	.local
   261
   262 3C1A 8E 63 3C			stx rX
   263 3C1D 8C 5E 3C			sty rY
   264
   265 3C20 98				tya
   266 3C21 4A 4A 4A			:3 lsr @
   267 3C24 A8				tay
   268 3C25 B9 7A 3C			lda tab,y
   269 3C28 85 E6			sta fhlp+1
   270
   271 3C2A B9 4D 55			lda fade_chars.plot.lmul,y	; obliczamy adres do znaku
   272 3C2D 18 69 83			add <scrn
   273 3C30 85 E3			sta fadr
   274 3C32 B9 68 55			lda fade_chars.plot.hmul,y
   275 3C35 69 55			adc >scrn
   276 3C37 85 E4			sta fadr+1
   277
   278 3C39 8A				txa
   279 3C3A 4A 4A			:2 lsr @
   280 3C3C A8				tay
   281
   282 3C3D B1 E3			lda (fadr),y
   283 3C3F 29 7F			and #$7f
   284
   285 3C41 85 E1			sta fcnt
   286 3C43 A9 00			lda #0
   287
   288 3C45 06 E1			asl fcnt
   289 3C47 2A				rol @
   290 3C48 06 E1			asl fcnt
   291 3C4A 2A				rol @
   292 3C4B 06 E1			asl fcnt
   293 3C4D 2A				rol @
   294
   295 3C4E 85 E2			sta fcnt+1
   296
   297 3C50 A5 E1			lda fcnt			; adres do definicji znaku w zestawie
   298 3C52 18 69 00			add #0
   299 3C55 85 E5			sta fhlp
   300 3C57 A5 E2			lda fcnt+1
   301 3C59 65 E6			adc fhlp+1
   302 3C5B 85 E6			sta fhlp+1
   303
   304 3C5D A9 00			lda #0
   305 = 3C5E			rY	equ *-1
   306 3C5F 29 07			and #7
   307 3C61 A8				tay
   308
   309 3C62 A9 00			lda #0
   310 = 3C63			rX	equ *-1
   311 3C64 29 03			and #3
   312 3C66 AA				tax
   313
   314 3C67 B1 E5			lda (fhlp),y
   315 3C69 3D 72 3C			and msk,x
   316 3C6C 1D 76 3C			ora pix,x
   317 3C6F 91 E5			sta (fhlp),y
   318
   319 3C71 60			stop	rts
   320
   321 3C72 3F			msk	dta %11000000^$ff
   322 3C73 CF				dta %00110000^$ff
   323 3C74 F3				dta %00001100^$ff
   324 3C75 FC				dta %00000011^$ff
   325
   326 3C76 80			pix	dta %10000000
   327 3C77 20				dta %00100000
   328 3C78 08				dta %00001000
   329 3C79 02				dta %00000010
   330
   331 3C7A			tab	.get 'mapa_OK.tab'
   332
   333 3C7A 20 20 20 20 20 24 + 	:25 dta h(fnt+.get[#]*$400)
   334 					.endl
   335
   336 					
   337 3C93 BD 6A 3D 8D B4 3C	set_jsr	mva lline,x _lne
   338 3C99 BD 76 3D 8D B5 3C		mva hline,x _lne+1
   339
   340 3C9F BD 46 3D			lda order,x
   341 3CA2 AA				tax
   342
   343 3CA3 BD 52 3D 8D B1 3C		mva ladr,x _jsr
   344 3CA9 BD 5E 3D 8D B2 3C		mva hadr,x _jsr+1
   345
   346 3CAF 60				rts
   347
   348 3CB0 4C FF FF		set_val	jmp $ffff
   349 = 3CB1			_jsr	equ *-2
   350
   351 3CB3 4C FF FF			jmp $ffff
   352 = 3CB4			_lne	equ *-2
   353
   354 					.rept 16,#
   355 					.IFDEF DLI.X%%1
   356 				B%%1	LDA #DLI.X%%1_
   357 					STA DLI.X%%1+1
   358 					STX DLI.X%%1_0+1
   359 					STY DLI.X%%1_1+1
   360 					RTS
   361 					EIF
   363 					.IFDEF NMI.X%%1
   364 				B%%1	LDA #NMI.X%%1_
   365 					STA NMI.X%%1+1
   366 					STX NMI.X%%1_0+1
   367 					STY NMI.X%%1_1+1
   368 					RTS
   369 					EIF
   370 					.ENDR
   370 					.endr
Source: REPT
   355 					.IFDEF DLI.X0
   355 				B0	LDA #DLI.X0_
   355 					STA DLI.X0+1
   355 					STX DLI.X0_0+1
   355 					STY DLI.X0_1+1
   355 					RTS
   355 					EIF
   355 					.IFDEF NMI.X0
   355 3CB6 A9 6F		B0	LDA #NMI.X0_
   355 3CB8 8D D8 40			STA NMI.X0+1
   355 3CBB 8E E0 40			STX NMI.X0_0+1
   355 3CBE 8C E5 40			STY NMI.X0_1+1
   355 3CC1 60				RTS
   355 					EIF
   355 					.IFDEF DLI.X1
   355 				B1	LDA #DLI.X1_
   355 					STA DLI.X1+1
   355 					STX DLI.X1_0+1
   355 					STY DLI.X1_1+1
   355 					RTS
   355 					EIF
   355 					.IFDEF NMI.X1
   355 3CC2 A9 82		B1	LDA #NMI.X1_
   355 3CC4 8D EA 40			STA NMI.X1+1
   355 3CC7 8E F2 40			STX NMI.X1_0+1
   355 3CCA 8C F7 40			STY NMI.X1_1+1
   355 3CCD 60				RTS
   355 					EIF
   355 					.IFDEF DLI.X2
   355 				B2	LDA #DLI.X2_
   355 					STA DLI.X2+1
   355 					STX DLI.X2_0+1
   355 					STY DLI.X2_1+1
   355 					RTS
   355 					EIF
   355 					.IFDEF NMI.X2
   355 				B2	LDA #NMI.X2_
   355 					STA NMI.X2+1
   355 					STX NMI.X2_0+1
   355 					STY NMI.X2_1+1
   355 					RTS
   355 					EIF
   355 					.IFDEF DLI.X3
   355 3CCE A9 76		B3	LDA #DLI.X3_
   355 3CD0 8D AA 3E			STA DLI.X3+1
   355 3CD3 8E B2 3E			STX DLI.X3_0+1
   355 3CD6 8C B7 3E			STY DLI.X3_1+1
   355 3CD9 60				RTS
   355 					EIF
   355 					.IFDEF NMI.X3
   355 				B3	LDA #NMI.X3_
   355 					STA NMI.X3+1
   355 					STX NMI.X3_0+1
   355 					STY NMI.X3_1+1
   355 					RTS
   355 					EIF
   355 					.IFDEF DLI.X4
   355 3CDA A9 61		B4	LDA #DLI.X4_
   355 3CDC 8D D8 3E			STA DLI.X4+1
   355 3CDF 8E E0 3E			STX DLI.X4_0+1
   355 3CE2 8C E5 3E			STY DLI.X4_1+1
   355 3CE5 60				RTS
   355 					EIF
   355 					.IFDEF NMI.X4
   355 				B4	LDA #NMI.X4_
   355 					STA NMI.X4+1
   355 					STX NMI.X4_0+1
   355 					STY NMI.X4_1+1
   355 					RTS
   355 					EIF
   355 					.IFDEF DLI.X5
   355 3CE6 A9 BE		B5	LDA #DLI.X5_
   355 3CE8 8D EA 3E			STA DLI.X5+1
   355 3CEB 8E F2 3E			STX DLI.X5_0+1
   355 3CEE 8C F7 3E			STY DLI.X5_1+1
   355 3CF1 60				RTS
   355 					EIF
   355 					.IFDEF NMI.X5
   355 				B5	LDA #NMI.X5_
   355 					STA NMI.X5+1
   355 					STX NMI.X5_0+1
   355 					STY NMI.X5_1+1
   355 					RTS
   355 					EIF
   355 					.IFDEF DLI.X6
   355 3CF2 A9 44		B6	LDA #DLI.X6_
   355 3CF4 8D 16 3F			STA DLI.X6+1
   355 3CF7 8E 1E 3F			STX DLI.X6_0+1
   355 3CFA 8C 23 3F			STY DLI.X6_1+1
   355 3CFD 60				RTS
   355 					EIF
   355 					.IFDEF NMI.X6
   355 				B6	LDA #NMI.X6_
   355 					STA NMI.X6+1
   355 					STX NMI.X6_0+1
   355 					STY NMI.X6_1+1
   355 					RTS
   355 					EIF
   355 					.IFDEF DLI.X7
   355 3CFE A9 9E		B7	LDA #DLI.X7_
   355 3D00 8D 28 3F			STA DLI.X7+1
   355 3D03 8E 30 3F			STX DLI.X7_0+1
   355 3D06 8C 35 3F			STY DLI.X7_1+1
   355 3D09 60				RTS
   355 					EIF
   355 					.IFDEF NMI.X7
   355 				B7	LDA #NMI.X7_
   355 					STA NMI.X7+1
   355 					STX NMI.X7_0+1
   355 					STY NMI.X7_1+1
   355 					RTS
   355 					EIF
   355 					.IFDEF DLI.X8
   355 3D0A A9 58		B8	LDA #DLI.X8_
   355 3D0C 8D 56 3F			STA DLI.X8+1
   355 3D0F 8E 5E 3F			STX DLI.X8_0+1
   355 3D12 8C 63 3F			STY DLI.X8_1+1
   355 3D15 60				RTS
   355 					EIF
   355 					.IFDEF NMI.X8
   355 				B8	LDA #NMI.X8_
   355 					STA NMI.X8+1
   355 					STX NMI.X8_0+1
   355 					STY NMI.X8_1+1
   355 					RTS
   355 					EIF
   355 					.IFDEF DLI.X9
   355 3D16 A9 7B		B9	LDA #DLI.X9_
   355 3D18 8D 93 3F			STA DLI.X9+1
   355 3D1B 8E 9B 3F			STX DLI.X9_0+1
   355 3D1E 8C A0 3F			STY DLI.X9_1+1
   355 3D21 60				RTS
   355 					EIF
   355 					.IFDEF NMI.X9
   355 				B9	LDA #NMI.X9_
   355 					STA NMI.X9+1
   355 					STX NMI.X9_0+1
   355 					STY NMI.X9_1+1
   355 					RTS
   355 					EIF
   355 					.IFDEF DLI.X10
   355 3D22 A9 33		B10	LDA #DLI.X10_
   355 3D24 8D CD 3F			STA DLI.X10+1
   355 3D27 8E D5 3F			STX DLI.X10_0+1
   355 3D2A 8C DA 3F			STY DLI.X10_1+1
   355 3D2D 60				RTS
   355 					EIF
   355 					.IFDEF NMI.X10
   355 				B10	LDA #NMI.X10_
   355 					STA NMI.X10+1
   355 					STX NMI.X10_0+1
   355 					STY NMI.X10_1+1
   355 					RTS
   355 					EIF
   355 					.IFDEF DLI.X11
   355 3D2E A9 C0		B11	LDA #DLI.X11_
   355 3D30 8D F8 3F			STA DLI.X11+1
   355 3D33 8E 00 40			STX DLI.X11_0+1
   355 3D36 8C 05 40			STY DLI.X11_1+1
   355 3D39 60				RTS
   355 					EIF
   355 					.IFDEF NMI.X11
   355 				B11	LDA #NMI.X11_
   355 					STA NMI.X11+1
   355 					STX NMI.X11_0+1
   355 					STY NMI.X11_1+1
   355 					RTS
   355 					EIF
   355 					.IFDEF DLI.X12
   355 3D3A A9 4D		B12	LDA #DLI.X12_
   355 3D3C 8D 3A 40			STA DLI.X12+1
   355 3D3F 8E 42 40			STX DLI.X12_0+1
   355 3D42 8C 47 40			STY DLI.X12_1+1
   355 3D45 60				RTS
   355 					EIF
   355 					.IFDEF NMI.X12
   355 				B12	LDA #NMI.X12_
   355 					STA NMI.X12+1
   355 					STX NMI.X12_0+1
   355 					STY NMI.X12_1+1
   355 					RTS
   355 					EIF
   355 					.IFDEF DLI.X13
   355 				B13	LDA #DLI.X13_
   355 					STA DLI.X13+1
   355 					STX DLI.X13_0+1
   355 					STY DLI.X13_1+1
   355 					RTS
   355 					EIF
   355 					.IFDEF NMI.X13
   355 				B13	LDA #NMI.X13_
   355 					STA NMI.X13+1
   355 					STX NMI.X13_0+1
   355 					STY NMI.X13_1+1
   355 					RTS
   355 					EIF
   355 					.IFDEF DLI.X14
   355 				B14	LDA #DLI.X14_
   355 					STA DLI.X14+1
   355 					STX DLI.X14_0+1
   355 					STY DLI.X14_1+1
   355 					RTS
   355 					EIF
   355 					.IFDEF NMI.X14
   355 				B14	LDA #NMI.X14_
   355 					STA NMI.X14+1
   355 					STX NMI.X14_0+1
   355 					STY NMI.X14_1+1
   355 					RTS
   355 					EIF
   355 					.IFDEF DLI.X15
   355 				B15	LDA #DLI.X15_
   355 					STA DLI.X15+1
   355 					STX DLI.X15_0+1
   355 					STY DLI.X15_1+1
   355 					RTS
   355 					EIF
   355 					.IFDEF NMI.X15
   355 				B15	LDA #NMI.X15_
   355 					STA NMI.X15+1
   355 					STX NMI.X15_0+1
   355 					STY NMI.X15_1+1
   355 					RTS
   355 					EIF
Source: D:\!Atari\Pang_2\tour_map\mapa.asm
   371
   372 3D46 09 0B 07 05 03 08 + order	dta 9,11,7,5,3,8,2,0,1,6,4,10
   373
   374 3D52 B6 C2 CE DA E6 F2 + ladr	dta l(b0,b1,b3,b4,b5,b6,b7,b8,b9,b10,b11,b12)
   375 3D5E 3C 3C 3C 3C 3C 3C + hadr	dta h(b0,b1,b3,b4,b5,b6,b7,b8,b9,b10,b11,b12)
   376
   377 3D6A 99 82 9A B2 CA E2 + lline	:12 dta l(ln%%1)
   378 3D76 3D 3D 3D 3D 3D 3D + hline	:12 dta h(ln%%1)
   379
   380 				ln1	line #7 #154 #33 #187
   380 				 MVA #7 LINE.X1\ MVA #154 LINE.Y1\ MVA #33 LINE.X2\ MVA #187 LINE.Y2\ JSR LINE
   380 3D82 A9 07 8D B4 5A	 MVA #7 LINE.X1
   380 3D87 A9 9A 8D B5 5A	 MVA #154 LINE.Y1
   380 3D8C A9 21 8D B6 5A	 MVA #33 LINE.X2
   380 3D91 A9 BB 8D B7 5A	 MVA #187 LINE.Y2
   380 3D96 20 BB 59		 JSR LINE
   381 3D99 60			ln0	rts
   382
   383 				ln2	line #33 #187 #44 #116
   383 				 MVA #33 LINE.X1\ MVA #187 LINE.Y1\ MVA #44 LINE.X2\ MVA #116 LINE.Y2\ JSR LINE
   383 3D9A A9 21 8D B4 5A	 MVA #33 LINE.X1
   383 3D9F A9 BB 8D B5 5A	 MVA #187 LINE.Y1
   383 3DA4 A9 2C 8D B6 5A	 MVA #44 LINE.X2
   383 3DA9 A9 74 8D B7 5A	 MVA #116 LINE.Y2
   383 3DAE 20 BB 59		 JSR LINE
   384 3DB1 60				rts
   385
   386 				ln3	line #44 #116 #24 #97
   386 				 MVA #44 LINE.X1\ MVA #116 LINE.Y1\ MVA #24 LINE.X2\ MVA #97 LINE.Y2\ JSR LINE
   386 3DB2 A9 2C 8D B4 5A	 MVA #44 LINE.X1
   386 3DB7 A9 74 8D B5 5A	 MVA #116 LINE.Y1
   386 3DBC A9 18 8D B6 5A	 MVA #24 LINE.X2
   386 3DC1 A9 61 8D B7 5A	 MVA #97 LINE.Y2
   386 3DC6 20 BB 59		 JSR LINE
   387 3DC9 60				rts
   388
   389 				ln4	line #24 #97 #52 #69
   389 				 MVA #24 LINE.X1\ MVA #97 LINE.Y1\ MVA #52 LINE.X2\ MVA #69 LINE.Y2\ JSR LINE
   389 3DCA A9 18 8D B4 5A	 MVA #24 LINE.X1
   389 3DCF A9 61 8D B5 5A	 MVA #97 LINE.Y1
   389 3DD4 A9 34 8D B6 5A	 MVA #52 LINE.X2
   389 3DD9 A9 45 8D B7 5A	 MVA #69 LINE.Y2
   389 3DDE 20 BB 59		 JSR LINE
   390 3DE1 60				rts
   391
   392 				ln5	line #52 #69 #79 #139
   392 				 MVA #52 LINE.X1\ MVA #69 LINE.Y1\ MVA #79 LINE.X2\ MVA #139 LINE.Y2\ JSR LINE
   392 3DE2 A9 34 8D B4 5A	 MVA #52 LINE.X1
   392 3DE7 A9 45 8D B5 5A	 MVA #69 LINE.Y1
   392 3DEC A9 4F 8D B6 5A	 MVA #79 LINE.X2
   392 3DF1 A9 8B 8D B7 5A	 MVA #139 LINE.Y2
   392 3DF6 20 BB 59		 JSR LINE
   393 3DF9 60				rts
   394
   395 				ln6	line #79 #139 #75 #56
   395 				 MVA #79 LINE.X1\ MVA #139 LINE.Y1\ MVA #75 LINE.X2\ MVA #56 LINE.Y2\ JSR LINE
   395 3DFA A9 4F 8D B4 5A	 MVA #79 LINE.X1
   395 3DFF A9 8B 8D B5 5A	 MVA #139 LINE.Y1
   395 3E04 A9 4B 8D B6 5A	 MVA #75 LINE.X2
   395 3E09 A9 38 8D B7 5A	 MVA #56 LINE.Y2
   395 3E0E 20 BB 59		 JSR LINE
   396 3E11 60				rts
   397
   398 				ln7	line #75 #56 #66 #24
   398 				 MVA #75 LINE.X1\ MVA #56 LINE.Y1\ MVA #66 LINE.X2\ MVA #24 LINE.Y2\ JSR LINE
   398 3E12 A9 4B 8D B4 5A	 MVA #75 LINE.X1
   398 3E17 A9 38 8D B5 5A	 MVA #56 LINE.Y1
   398 3E1C A9 42 8D B6 5A	 MVA #66 LINE.X2
   398 3E21 A9 18 8D B7 5A	 MVA #24 LINE.Y2
   398 3E26 20 BB 59		 JSR LINE
   399 3E29 60				rts
   400
   401 				ln8	line #66 #24 #86 #34
   401 				 MVA #66 LINE.X1\ MVA #24 LINE.Y1\ MVA #86 LINE.X2\ MVA #34 LINE.Y2\ JSR LINE
   401 3E2A A9 42 8D B4 5A	 MVA #66 LINE.X1
   401 3E2F A9 18 8D B5 5A	 MVA #24 LINE.Y1
   401 3E34 A9 56 8D B6 5A	 MVA #86 LINE.X2
   401 3E39 A9 22 8D B7 5A	 MVA #34 LINE.Y2
   401 3E3E 20 BB 59		 JSR LINE
   402 3E41 60				rts
   403
   404 				ln9	line #86 #34 #113 #98
   404 				 MVA #86 LINE.X1\ MVA #34 LINE.Y1\ MVA #113 LINE.X2\ MVA #98 LINE.Y2\ JSR LINE
   404 3E42 A9 56 8D B4 5A	 MVA #86 LINE.X1
   404 3E47 A9 22 8D B5 5A	 MVA #34 LINE.Y1
   404 3E4C A9 71 8D B6 5A	 MVA #113 LINE.X2
   404 3E51 A9 62 8D B7 5A	 MVA #98 LINE.Y2
   404 3E56 20 BB 59		 JSR LINE
   405 3E59 60				rts
   406
   407 				ln10	line #113 #98 #146 #69
   407 				 MVA #113 LINE.X1\ MVA #98 LINE.Y1\ MVA #146 LINE.X2\ MVA #69 LINE.Y2\ JSR LINE
   407 3E5A A9 71 8D B4 5A	 MVA #113 LINE.X1
   407 3E5F A9 62 8D B5 5A	 MVA #98 LINE.Y1
   407 3E64 A9 92 8D B6 5A	 MVA #146 LINE.X2
   407 3E69 A9 45 8D B7 5A	 MVA #69 LINE.Y2
   407 3E6E 20 BB 59		 JSR LINE
   408 3E71 60				rts
   409
   410 				ln11	line #146 #69 #148 #172
   410 				 MVA #146 LINE.X1\ MVA #69 LINE.Y1\ MVA #148 LINE.X2\ MVA #172 LINE.Y2\ JSR LINE
   410 3E72 A9 92 8D B4 5A	 MVA #146 LINE.X1
   410 3E77 A9 45 8D B5 5A	 MVA #69 LINE.Y1
   410 3E7C A9 94 8D B6 5A	 MVA #148 LINE.X2
   410 3E81 A9 AC 8D B7 5A	 MVA #172 LINE.Y2
   410 3E86 20 BB 59		 JSR LINE
   411 3E89 60				rts
   412
   413 				/* -------------------------------------------------------------------------------------- */
   414 				/* -------------------------------------------------------------------------------------- */
   415
   416 				; ---	DLI PROGRAM
   417
   418 3E8A			.local	DLI
   419
   420 = 3E8A				?old_dli = *
   421
   422 3E8A			dli_start
   423
   424 3E8A			dli2
   425 3E8A 85 E8			sta regA
   426 3E8C A9 24			lda >fnt+$400*$01
   427 3E8E 8D 0A D4			sta wsync		;line=56
   428 3E91 8D 09 D4			sta chbase
   429 3E94				DLINEW dli3 1 0 0
Macro: DLINEW [Source: D:\!Atari\Pang_2\tour_map\mapa.asm]
     1 3E94 A9 9C 8D 78 40		mva <DLI3 NMI.dliv
     7 3E99 A5 E8			lda regA
    18 3E9B 40				rti
    20 = 3E9C				.def ?old_dli = *
Source: D:\!Atari\Pang_2\tour_map\mapa.asm
   430
   431 3E9C			dli3
   432 3E9C 85 E8			sta regA
   433 3E9E A9 20			lda >fnt+$400*$00
   434 3EA0 8D 0A D4			sta wsync		;line=64
   435 3EA3 8D 09 D4			sta chbase
   436 3EA6 8D 0A D4			sta wsync		;line=65
   437
   438 3EA9				pm1 "3" $76
Macro: PM1 [Source: D:\!Atari\Pang_2\tour_map\mapa.asm]
     1 = 0076				.def x3_ = $76
     2 = 3EA9				.def x3
     3 3EA9 A9 76			lda #$76
     4 3EAB 8D 00 D0			sta hposp0
     5 3EAE 8D 01 D0			sta hposp1
     6 = 3EB1				.def x3_0
     7 3EB1 A9 0C			lda #$0C
     8 3EB3 8D 12 D0			sta colpm0
     9 = 3EB6				.def x3_1
    10 3EB6 A9 06			lda #$06
    11 3EB8 8D 13 D0			sta colpm1
Source: D:\!Atari\Pang_2\tour_map\mapa.asm
   439
   440 3EBB				DLINEW dli4 1 0 0
Macro: DLINEW [Source: D:\!Atari\Pang_2\tour_map\mapa.asm]
     1 3EBB A9 C3 8D 78 40		mva <DLI4 NMI.dliv
     7 3EC0 A5 E8			lda regA
    18 3EC2 40				rti
    20 = 3EC3				.def ?old_dli = *
Source: D:\!Atari\Pang_2\tour_map\mapa.asm
   441
   442 3EC3			dli4
   443 3EC3 85 E8			sta regA
   444 3EC5 A9 24			lda >fnt+$400*$01
   445 3EC7 8D 0A D4			sta wsync		;line=72
   446 3ECA 8D 09 D4			sta chbase
   447 3ECD				DLINEW dli14 1 0 0
Macro: DLINEW [Source: D:\!Atari\Pang_2\tour_map\mapa.asm]
     1 3ECD A9 D5 8D 78 40		mva <DLI14 NMI.dliv
     7 3ED2 A5 E8			lda regA
    18 3ED4 40				rti
    20 = 3ED5				.def ?old_dli = *
Source: D:\!Atari\Pang_2\tour_map\mapa.asm
   448
   449 3ED5			dli14
   450 3ED5 85 E8			sta regA
   451
   452 3ED7				pm1 "4" $61
Macro: PM1 [Source: D:\!Atari\Pang_2\tour_map\mapa.asm]
     1 = 0061				.def x4_ = $61
     2 = 3ED7				.def x4
     3 3ED7 A9 61			lda #$61
     4 3ED9 8D 00 D0			sta hposp0
     5 3EDC 8D 01 D0			sta hposp1
     6 = 3EDF				.def x4_0
     7 3EDF A9 0C			lda #$0C
     8 3EE1 8D 12 D0			sta colpm0
     9 = 3EE4				.def x4_1
    10 3EE4 A9 06			lda #$06
    11 3EE6 8D 13 D0			sta colpm1
Source: D:\!Atari\Pang_2\tour_map\mapa.asm
   453 3EE9				pm2 "5" $be
Macro: PM2 [Source: D:\!Atari\Pang_2\tour_map\mapa.asm]
     1 = 00BE				.def x5_ = $BE
     2 = 3EE9				.def x5
     3 3EE9 A9 BE			lda #$BE
     4 3EEB 8D 02 D0			sta hposp2
     5 3EEE 8D 03 D0			sta hposp3
     6 = 3EF1				.def x5_0
     7 3EF1 A9 0C			lda #$0C
     8 3EF3 8D 14 D0			sta colpm2
     9 = 3EF6				.def x5_1
    10 3EF6 A9 06			lda #$06
    11 3EF8 8D 15 D0			sta colpm3
Source: D:\!Atari\Pang_2\tour_map\mapa.asm
   454
   455 3EFB				DLINEW dli5 1 0 0
Macro: DLINEW [Source: D:\!Atari\Pang_2\tour_map\mapa.asm]
     1 3EFB A9 08 8D 78 40		mva <DLI5 NMI.dliv
     3 3F00 A9 3F 8D 79 40		mva >DLI5 NMI.dliv+1
     7 3F05 A5 E8			lda regA
    18 3F07 40				rti
    20 = 3F08				.def ?old_dli = *
Source: D:\!Atari\Pang_2\tour_map\mapa.asm
   456
   457 3F08			dli5
   458 3F08 85 E8			sta regA
   459 3F0A A9 28			lda >fnt+$400*$02
   460 3F0C 8D 0A D4			sta wsync		;line=104
   461 3F0F 8D 09 D4			sta chbase
   462 3F12 8D 0A D4			sta wsync		;line=105
   463
   464 3F15				pm1 "6" $44
Macro: PM1 [Source: D:\!Atari\Pang_2\tour_map\mapa.asm]
     1 = 0044				.def x6_ = $44
     2 = 3F15				.def x6
     3 3F15 A9 44			lda #$44
     4 3F17 8D 00 D0			sta hposp0
     5 3F1A 8D 01 D0			sta hposp1
     6 = 3F1D				.def x6_0
     7 3F1D A9 0C			lda #$0C
     8 3F1F 8D 12 D0			sta colpm0
     9 = 3F22				.def x6_1
    10 3F22 A9 06			lda #$06
    11 3F24 8D 13 D0			sta colpm1
Source: D:\!Atari\Pang_2\tour_map\mapa.asm
   465 3F27				pm2 "7" $9e
Macro: PM2 [Source: D:\!Atari\Pang_2\tour_map\mapa.asm]
     1 = 009E				.def x7_ = $9E
     2 = 3F27				.def x7
     3 3F27 A9 9E			lda #$9E
     4 3F29 8D 02 D0			sta hposp2
     5 3F2C 8D 03 D0			sta hposp3
     6 = 3F2F				.def x7_0
     7 3F2F A9 0C			lda #$0C
     8 3F31 8D 14 D0			sta colpm2
     9 = 3F34				.def x7_1
    10 3F34 A9 06			lda #$06
    11 3F36 8D 15 D0			sta colpm3
Source: D:\!Atari\Pang_2\tour_map\mapa.asm
   466
   467 3F39				DLINEW dli15 1 0 0
Macro: DLINEW [Source: D:\!Atari\Pang_2\tour_map\mapa.asm]
     1 3F39 A9 41 8D 78 40		mva <DLI15 NMI.dliv
     7 3F3E A5 E8			lda regA
    18 3F40 40				rti
    20 = 3F41				.def ?old_dli = *
Source: D:\!Atari\Pang_2\tour_map\mapa.asm
   468
   469 3F41			dli15
   470 3F41 85 E8			sta regA
   471
   472 3F43 8D 0A D4			sta wsync		;line=120
   473 3F46 8D 0A D4			sta wsync		;line=121
   474 3F49 8D 0A D4			sta wsync		;line=122
   475 3F4C 8D 0A D4			sta wsync		;line=123
   476 3F4F 8D 0A D4			sta wsync		;line=124
   477 3F52 8D 0A D4			sta wsync		;line=125
   478 					
   479 3F55				pm1 "8" $58
Macro: PM1 [Source: D:\!Atari\Pang_2\tour_map\mapa.asm]
     1 = 0058				.def x8_ = $58
     2 = 3F55				.def x8
     3 3F55 A9 58			lda #$58
     4 3F57 8D 00 D0			sta hposp0
     5 3F5A 8D 01 D0			sta hposp1
     6 = 3F5D				.def x8_0
     7 3F5D A9 0C			lda #$0C
     8 3F5F 8D 12 D0			sta colpm0
     9 = 3F62				.def x8_1
    10 3F62 A9 06			lda #$06
    11 3F64 8D 13 D0			sta colpm1
Source: D:\!Atari\Pang_2\tour_map\mapa.asm
   480
   481 3F67				DLINEW dli6 1 0 0
Macro: DLINEW [Source: D:\!Atari\Pang_2\tour_map\mapa.asm]
     1 3F67 A9 6F 8D 78 40		mva <DLI6 NMI.dliv
     7 3F6C A5 E8			lda regA
    18 3F6E 40				rti
    20 = 3F6F				.def ?old_dli = *
Source: D:\!Atari\Pang_2\tour_map\mapa.asm
   482
   483 3F6F			dli6
   484 3F6F 85 E8			sta regA
   485 3F71 A9 2C			lda >fnt+$400*$03
   486 3F73 8D 0A D4			sta wsync		;line=128
   487 3F76 8D 09 D4			sta chbase
   488 3F79				DLINEW dli16 1 0 0
Macro: DLINEW [Source: D:\!Atari\Pang_2\tour_map\mapa.asm]
     1 3F79 A9 81 8D 78 40		mva <DLI16 NMI.dliv
     7 3F7E A5 E8			lda regA
    18 3F80 40				rti
    20 = 3F81				.def ?old_dli = *
Source: D:\!Atari\Pang_2\tour_map\mapa.asm
   489
   490 3F81			dli16
   491 3F81 85 E8			sta regA
   492
   493 3F83 8D 0A D4			sta wsync		;line=144
   494 3F86 8D 0A D4			sta wsync		;line=145
   495 3F89 8D 0A D4			sta wsync		;line=146
   496 3F8C 8D 0A D4			sta wsync		;line=147
   497 3F8F 8D 0A D4			sta wsync		;line=148
   498
   499 3F92				pm1 "9" $7b
Macro: PM1 [Source: D:\!Atari\Pang_2\tour_map\mapa.asm]
     1 = 007B				.def x9_ = $7B
     2 = 3F92				.def x9
     3 3F92 A9 7B			lda #$7B
     4 3F94 8D 00 D0			sta hposp0
     5 3F97 8D 01 D0			sta hposp1
     6 = 3F9A				.def x9_0
     7 3F9A A9 0C			lda #$0C
     8 3F9C 8D 12 D0			sta colpm0
     9 = 3F9F				.def x9_1
    10 3F9F A9 06			lda #$06
    11 3FA1 8D 13 D0			sta colpm1
Source: D:\!Atari\Pang_2\tour_map\mapa.asm
   500
   501 3FA4				DLINEW dli7 1 0 0
Macro: DLINEW [Source: D:\!Atari\Pang_2\tour_map\mapa.asm]
     1 3FA4 A9 AC 8D 78 40		mva <DLI7 NMI.dliv
     7 3FA9 A5 E8			lda regA
    18 3FAB 40				rti
    20 = 3FAC				.def ?old_dli = *
Source: D:\!Atari\Pang_2\tour_map\mapa.asm
   502
   503 3FAC			dli7
   504 3FAC 85 E8			sta regA
   505 3FAE A9 30			lda >fnt+$400*$04
   506 3FB0 8D 0A D4			sta wsync		;line=152
   507 3FB3 8D 09 D4			sta chbase
   508 3FB6				DLINEW dli17 1 0 0
Macro: DLINEW [Source: D:\!Atari\Pang_2\tour_map\mapa.asm]
     1 3FB6 A9 BE 8D 78 40		mva <DLI17 NMI.dliv
     7 3FBB A5 E8			lda regA
    18 3FBD 40				rti
    20 = 3FBE				.def ?old_dli = *
Source: D:\!Atari\Pang_2\tour_map\mapa.asm
   509
   510 3FBE			dli17
   511 3FBE 85 E8			sta regA
   512
   513 3FC0 8D 0A D4			sta wsync		;line=160
   514 3FC3 8D 0A D4			sta wsync		;line=161
   515 3FC6 8D 0A D4			sta wsync		;line=162
   516 3FC9 8D 0A D4			sta wsync		;line=163
   517
   518 3FCC				pm1 "10" $33
Macro: PM1 [Source: D:\!Atari\Pang_2\tour_map\mapa.asm]
     1 = 0033				.def x10_ = $33
     2 = 3FCC				.def x10
     3 3FCC A9 33			lda #$33
     4 3FCE 8D 00 D0			sta hposp0
     5 3FD1 8D 01 D0			sta hposp1
     6 = 3FD4				.def x10_0
     7 3FD4 A9 0C			lda #$0C
     8 3FD6 8D 12 D0			sta colpm0
     9 = 3FD9				.def x10_1
    10 3FD9 A9 06			lda #$06
    11 3FDB 8D 13 D0			sta colpm1
Source: D:\!Atari\Pang_2\tour_map\mapa.asm
   519
   520 3FDE				DLINEW dli18 1 0 0
Macro: DLINEW [Source: D:\!Atari\Pang_2\tour_map\mapa.asm]
     1 3FDE A9 E6 8D 78 40		mva <DLI18 NMI.dliv
     7 3FE3 A5 E8			lda regA
    18 3FE5 40				rti
    20 = 3FE6				.def ?old_dli = *
Source: D:\!Atari\Pang_2\tour_map\mapa.asm
   521
   522 3FE6			dli18
   523 3FE6 85 E8			sta regA
   524
   525 3FE8 8D 0A D4			sta wsync		;line=176
   526 3FEB 8D 0A D4			sta wsync		;line=177
   527 3FEE 8D 0A D4			sta wsync		;line=178
   528 3FF1 8D 0A D4			sta wsync		;line=179
   529 3FF4 8D 0A D4			sta wsync		;line=180
   530
   531 3FF7				pm1 "11" $c0
Macro: PM1 [Source: D:\!Atari\Pang_2\tour_map\mapa.asm]
     1 = 00C0				.def x11_ = $C0
     2 = 3FF7				.def x11
     3 3FF7 A9 C0			lda #$C0
     4 3FF9 8D 00 D0			sta hposp0
     5 3FFC 8D 01 D0			sta hposp1
     6 = 3FFF				.def x11_0
     7 3FFF A9 0C			lda #$0C
     8 4001 8D 12 D0			sta colpm0
     9 = 4004				.def x11_1
    10 4004 A9 06			lda #$06
    11 4006 8D 13 D0			sta colpm1
Source: D:\!Atari\Pang_2\tour_map\mapa.asm
   532
   533 4009				DLINEW dli8 1 0 0
Macro: DLINEW [Source: D:\!Atari\Pang_2\tour_map\mapa.asm]
     1 4009 A9 16 8D 78 40		mva <DLI8 NMI.dliv
     3 400E A9 40 8D 79 40		mva >DLI8 NMI.dliv+1
     7 4013 A5 E8			lda regA
    18 4015 40				rti
    20 = 4016				.def ?old_dli = *
Source: D:\!Atari\Pang_2\tour_map\mapa.asm
   534
   535 4016			dli8
   536 4016 85 E8			sta regA
   537 4018 A9 34			lda >fnt+$400*$05
   538 401A 8D 0A D4			sta wsync		;line=184
   539 401D 8D 09 D4			sta chbase
   540 4020				DLINEW dli19 1 0 0
Macro: DLINEW [Source: D:\!Atari\Pang_2\tour_map\mapa.asm]
     1 4020 A9 28 8D 78 40		mva <DLI19 NMI.dliv
     7 4025 A5 E8			lda regA
    18 4027 40				rti
    20 = 4028				.def ?old_dli = *
Source: D:\!Atari\Pang_2\tour_map\mapa.asm
   541
   542 4028			dli19
   543 4028 85 E8			sta regA
   544
   545 402A 8D 0A D4			sta wsync		;line=192
   546 402D 8D 0A D4			sta wsync		;line=193
   547 4030 8D 0A D4			sta wsync		;line=194
   548 4033 8D 0A D4			sta wsync		;line=195
   549 4036 8D 0A D4			sta wsync		;line=196
   550
   551 4039				pm1 "12" $4d
Macro: PM1 [Source: D:\!Atari\Pang_2\tour_map\mapa.asm]
     1 = 004D				.def x12_ = $4D
     2 = 4039				.def x12
     3 4039 A9 4D			lda #$4D
     4 403B 8D 00 D0			sta hposp0
     5 403E 8D 01 D0			sta hposp1
     6 = 4041				.def x12_0
     7 4041 A9 0C			lda #$0C
     8 4043 8D 12 D0			sta colpm0
     9 = 4046				.def x12_1
    10 4046 A9 06			lda #$06
    11 4048 8D 13 D0			sta colpm1
Source: D:\!Atari\Pang_2\tour_map\mapa.asm
   552
   553 404B				DLINEW dli9 1 0 0
Macro: DLINEW [Source: D:\!Atari\Pang_2\tour_map\mapa.asm]
     1 404B A9 53 8D 78 40		mva <DLI9 NMI.dliv
     7 4050 A5 E8			lda regA
    18 4052 40				rti
    20 = 4053				.def ?old_dli = *
Source: D:\!Atari\Pang_2\tour_map\mapa.asm
   554
   555 4053			dli9
   556 4053 85 E8			sta regA
   557 4055 A9 28			lda >fnt+$400*$02
   558 4057 8D 0A D4			sta wsync		;line=200
   559 405A 8D 09 D4			sta chbase
   560 405D				DLINEW dli10 1 0 0
Macro: DLINEW [Source: D:\!Atari\Pang_2\tour_map\mapa.asm]
     1 405D A9 65 8D 78 40		mva <DLI10 NMI.dliv
     7 4062 A5 E8			lda regA
    18 4064 40				rti
    20 = 4065				.def ?old_dli = *
Source: D:\!Atari\Pang_2\tour_map\mapa.asm
   561
   562 4065			dli10
   563 4065 85 E8			sta regA
   564 4067 A9 34			lda >fnt+$400*$05
   565 4069 8D 0A D4			sta wsync		;line=208
   566 406C 8D 09 D4			sta chbase
   567
   568 406F A5 E8			lda regA
   569 4071 40				rti
   570 				.endl
   571
   572
   573 				; ---
   574
   575 = 0001			CHANGES = 1
   576 = 0003			FADECHR	= 3
   577
   578 = 0000			SCHR	= 0
   579
   580 				; ---
   581
   582 4072			.proc	NMI
   583
   584 4072 2C 0F D4			bit nmist
   585 4075 10 03			bpl VBL
   586
   587 4077 4C 8A 3E			jmp DLI.dli_start
   588 = 4078			dliv	equ *-2
   589
   590 407A			VBL
   591 407A 85 E8			sta regA
   592 407C 86 E9			stx regX
   593 407E 84 EA			sty regY
   594
   595 4080 8D 0F D4			sta nmist		;reset NMI flag
   596
   597 4083 A9 80 8D 02 D4 A9 + 	mwa #ant dlptr		;ANTIC address program
   598
   599 408D A9 3E 8D 00 D4		mva #scr40 dmactl	;set new screen width
   600
   601 4092 E6 E7			inc cloc		;little timer
   602
   603 				; Initial values
   604
   605 4094 A9 20			lda >fnt+$400*$00
   606 4096 8D 09 D4			sta chbase
   607
   608 4099 A9 00		c0	lda #$00
   609 409B 8D 1A D0			sta colbak
   610
   611 409E 8D 04 D0			sta hposm0
   612 40A1 8D 05 D0			sta hposm1
   613 40A4 8D 06 D0			sta hposm2
   614 40A7 8D 07 D0			sta hposm3
   615 40AA 8D 0C D0			sta sizem
   616 40AD 8D 08 D0			sta sizep0
   617 40B0 8D 09 D0			sta sizep1
   618 40B3 8D 0A D0			sta sizep2
   619 40B6 8D 0B D0			sta sizep3
   620
   621 40B9 A9 02			lda #$02
   622 40BB 8D 01 D4			sta chrctl
   623 40BE A9 21			lda #$21
   624 40C0 8D 1B D0			sta gtictl
   625
   626 40C3 A9 76		c1	lda #$76
   627 40C5 8D 16 D0			sta color0
   628 40C8 A9 EE		c2	lda #$EE
   629 40CA 8D 17 D0			sta color1
   630 40CD A9 1A		c3	lda #$1A
   631 40CF 8D 18 D0			sta color2
   632 40D2 A9 74		c4	lda #$74
   633 40D4 8D 19 D0			sta color3
   634
   635 40D7				pm2 "0" $6f
Macro: PM2 [Source: D:\!Atari\Pang_2\tour_map\mapa.asm]
     1 = 006F				.def x0_ = $6F
     2 = 40D7				.def x0
     3 40D7 A9 6F			lda #$6F
     4 40D9 8D 02 D0			sta hposp2
     5 40DC 8D 03 D0			sta hposp3
     6 = 40DF				.def x0_0
     7 40DF A9 0C			lda #$0C
     8 40E1 8D 14 D0			sta colpm2
     9 = 40E4				.def x0_1
    10 40E4 A9 06			lda #$06
    11 40E6 8D 15 D0			sta colpm3
Source: D:\!Atari\Pang_2\tour_map\mapa.asm
   636 40E9				pm1 "1" $82
Macro: PM1 [Source: D:\!Atari\Pang_2\tour_map\mapa.asm]
     1 = 0082				.def x1_ = $82
     2 = 40E9				.def x1
     3 40E9 A9 82			lda #$82
     4 40EB 8D 00 D0			sta hposp0
     5 40EE 8D 01 D0			sta hposp1
     6 = 40F1				.def x1_0
     7 40F1 A9 0C			lda #$0C
     8 40F3 8D 12 D0			sta colpm0
     9 = 40F6				.def x1_1
    10 40F6 A9 06			lda #$06
    11 40F8 8D 13 D0			sta colpm1
Source: D:\!Atari\Pang_2\tour_map\mapa.asm
   637
   638 40FB A9 8A 8D 78 40 A9 + 	mwa #DLI.dli_start dliv	;set the first address of DLI interrupt
   639
   640 				;this area is for yours routines
   641
   642 4105 A5 E8		quit	lda regA
   643 4107 A6 E9			ldx regX
   644 4109 A4 EA			ldy regY
   645 410B 40				rti
   646
   647 				.endp
   648
   649
   650 				; ---
   651
   652 410C				icl 'mapa.hcl'
Source: D:\!Atari\Pang_2\tour_map\mapa.hcl
     1
     2 				; ------------	column #0
     3
     4 410C			c0r0
     5 410C 00				.he 00
     6 410D			c0r1
     7 410D 00				.he 00
     8 410E			c0r2
     9 410E 00				.he 00
    10 410F			c0r3
    11 410F 00				.he 00
    12 4110			c0r4
    13 4110 00				.he 00
    14 4111			c0r5
    15 4111 00				.he 00
    16 4112			c0r6
    17 4112 00				.he 00
    18 4113			c0r7
    19 4113 00				.he 00
    20 4114			c0r8
    21 4114 00				.he 00
    22 4115			c0r9
    23 4115 00				.he 00
    24 4116			c0r10
    25 4116 00				.he 00
    26 4117			c0r11
    27 4117 00				.he 00
    28 4118			c0r12
    29 4118 00				.he 00
    30 4119			c0r13
    31 4119 00				.he 00
    32 411A			c0r14
    33 411A 00				.he 00
    34 411B			c0r15
    35 411B 00				.he 00
    36 411C			c0r16
    37 411C 00				.he 00
    38 411D			c0r17
    39 411D 00				.he 00
    40 411E			c0r18
    41 411E 00				.he 00
    42 411F			c0r19
    43 411F 00				.he 00
    44 4120			c0r20
    45 4120 00				.he 00
    46 4121			c0r21
    47 4121 20				.he 20
    48 4122 80 80 80 80 80 80 + 	.he 80 80 80 80 80 80 00 00
    49 412A			c0r22
    50 412A 00				.he 00
    51 412B			c0r23
    52 412B 00				.he 00
    53 412C			c0r24
    54 412C 00				.he 00
    55 412D			c0r25
    56 412D 00				.he 00
    57 412E			c0r26
    58 412E 00				.he 00
    59 412F			c0r27
    60 412F 00				.he 00
    61 4130			c0r28
    62 4130 00				.he 00
    63 4131			c0r29
    64 4131 00				.he 00
    65
    66 				; ------------	column #1
    67
    68 4132			c1r0
    69 4132 00				.he 00
    70 4133			c1r1
    71 4133 00				.he 00
    72 4134			c1r2
    73 4134 00				.he 00
    74 4135			c1r3
    75 4135 00				.he 00
    76 4136			c1r4
    77 4136 00				.he 00
    78 4137			c1r5
    79 4137 00				.he 00
    80 4138			c1r6
    81 4138 00				.he 00
    82 4139			c1r7
    83 4139 00				.he 00
    84 413A			c1r8
    85 413A 00				.he 00
    86 413B			c1r9
    87 413B 00				.he 00
    88 413C			c1r10
    89 413C 00				.he 00
    90 413D			c1r11
    91 413D 00				.he 00
    92 413E			c1r12
    93 413E 00				.he 00
    94 413F			c1r13
    95 413F 00				.he 00
    96 4140			c1r14
    97 4140 00				.he 00
    98 4141			c1r15
    99 4141 00				.he 00
   100 4142			c1r16
   101 4142 00				.he 00
   102 4143			c1r17
   103 4143 00				.he 00
   104 4144			c1r18
   105 4144 00				.he 00
   106 4145			c1r19
   107 4145 00				.he 00
   108 4146			c1r20
   109 4146 60				.he 60
   110 4147 00 00 00 00 00 00 + 	.he 00 00 00 00 00 00 10 20
   111 414F 00 00 00 00 18 38 + 	.he 00 00 00 00 18 38 78 78
   112 4157			c1r21
   113 4157 60				.he 60
   114 4158 00 40 40 00 00 00 + 	.he 00 40 40 00 00 00 00 00
   115 4160 78 78 78 78 78 78 + 	.he 78 78 78 78 78 78 78 78
   116 4168			c1r22
   117 4168 20				.he 20
   118 4169 38 18 00 00 00 00 + 	.he 38 18 00 00 00 00 00 00
   119 4171			c1r23
   120 4171 00				.he 00
   121 4172			c1r24
   122 4172 00				.he 00
   123 4173			c1r25
   124 4173 00				.he 00
   125 4174			c1r26
   126 4174 00				.he 00
   127 4175			c1r27
   128 4175 00				.he 00
   129 4176			c1r28
   130 4176 00				.he 00
   131 4177			c1r29
   132 4177 00				.he 00
   133
   134 				; ------------	column #2
   135
   136 4178			c2r0
   137 4178 00				.he 00
   138 4179			c2r1
   139 4179 00				.he 00
   140 417A			c2r2
   141 417A 00				.he 00
   142 417B			c2r3
   143 417B 00				.he 00
   144 417C			c2r4
   145 417C 00				.he 00
   146 417D			c2r5
   147 417D 00				.he 00
   148 417E			c2r6
   149 417E 00				.he 00
   150 417F			c2r7
   151 417F 00				.he 00
   152 4180			c2r8
   153 4180 00				.he 00
   154 4181			c2r9
   155 4181 00				.he 00
   156 4182			c2r10
   157 4182 00				.he 00
   158 4183			c2r11
   159 4183 00				.he 00
   160 4184			c2r12
   161 4184 00				.he 00
   162 4185			c2r13
   163 4185 00				.he 00
   164 4186			c2r14
   165 4186 00				.he 00
   166 4187			c2r15
   167 4187 00				.he 00
   168 4188			c2r16
   169 4188 00				.he 00
   170 4189			c2r17
   171 4189 00				.he 00
   172 418A			c2r18
   173 418A 00				.he 00
   174 418B			c2r19
   175 418B 00				.he 00
   176 418C			c2r20
   177 418C 20				.he 20
   178 418D 00 00 00 00 00 04 + 	.he 00 00 00 00 00 04 06 06
   179 4195			c2r21
   180 4195 20				.he 20
   181 4196 07 07 07 07 07 07 + 	.he 07 07 07 07 07 07 06 06
   182 419E			c2r22
   183 419E 20				.he 20
   184 419F 04 00 00 00 00 00 + 	.he 04 00 00 00 00 00 00 00
   185 41A7			c2r23
   186 41A7 00				.he 00
   187 41A8			c2r24
   188 41A8 00				.he 00
   189 41A9			c2r25
   190 41A9 00				.he 00
   191 41AA			c2r26
   192 41AA 00				.he 00
   193 41AB			c2r27
   194 41AB 00				.he 00
   195 41AC			c2r28
   196 41AC 00				.he 00
   197 41AD			c2r29
   198 41AD 00				.he 00
   199
   200 				; ------------	column #3
   201
   202 41AE			c3r0
   203 41AE 00				.he 00
   204 41AF			c3r1
   205 41AF 00				.he 00
   206 41B0			c3r2
   207 41B0 00				.he 00
   208 41B1			c3r3
   209 41B1 00				.he 00
   210 41B2			c3r4
   211 41B2 00				.he 00
   212 41B3			c3r5
   213 41B3 00				.he 00
   214 41B4			c3r6
   215 41B4 00				.he 00
   216 41B5			c3r7
   217 41B5 00				.he 00
   218 41B6			c3r8
   219 41B6 00				.he 00
   220 41B7			c3r9
   221 41B7 00				.he 00
   222 41B8			c3r10
   223 41B8 00				.he 00
   224 41B9			c3r11
   225 41B9 00				.he 00
   226 41BA			c3r12
   227 41BA 00				.he 00
   228 41BB			c3r13
   229 41BB 00				.he 00
   230 41BC			c3r14
   231 41BC 00				.he 00
   232 41BD			c3r15
   233 41BD 00				.he 00
   234 41BE			c3r16
   235 41BE 00				.he 00
   236 41BF			c3r17
   237 41BF 00				.he 00
   238 41C0			c3r18
   239 41C0 00				.he 00
   240 41C1			c3r19
   241 41C1 00				.he 00
   242 41C2			c3r20
   243 41C2 00				.he 00
   244 41C3			c3r21
   245 41C3 00				.he 00
   246 41C4			c3r22
   247 41C4 00				.he 00
   248 41C5			c3r23
   249 41C5 00				.he 00
   250 41C6			c3r24
   251 41C6 00				.he 00
   252 41C7			c3r25
   253 41C7 00				.he 00
   254 41C8			c3r26
   255 41C8 00				.he 00
   256 41C9			c3r27
   257 41C9 00				.he 00
   258 41CA			c3r28
   259 41CA 00				.he 00
   260 41CB			c3r29
   261 41CB 00				.he 00
   262
   263 				; ------------	column #4
   264
   265 41CC			c4r0
   266 41CC 00				.he 00
   267 41CD			c4r1
   268 41CD 00				.he 00
   269 41CE			c4r2
   270 41CE 00				.he 00
   271 41CF			c4r3
   272 41CF 00				.he 00
   273 41D0			c4r4
   274 41D0 00				.he 00
   275 41D1			c4r5
   276 41D1 00				.he 00
   277 41D2			c4r6
   278 41D2 00				.he 00
   279 41D3			c4r7
   280 41D3 00				.he 00
   281 41D4			c4r8
   282 41D4 00				.he 00
   283 41D5			c4r9
   284 41D5 00				.he 00
   285 41D6			c4r10
   286 41D6 00				.he 00
   287 41D7			c4r11
   288 41D7 00				.he 00
   289 41D8			c4r12
   290 41D8 00				.he 00
   291 41D9			c4r13
   292 41D9 00				.he 00
   293 41DA			c4r14
   294 41DA 00				.he 00
   295 41DB			c4r15
   296 41DB 00				.he 00
   297 41DC			c4r16
   298 41DC 00				.he 00
   299 41DD			c4r17
   300 41DD 00				.he 00
   301 41DE			c4r18
   302 41DE 00				.he 00
   303 41DF			c4r19
   304 41DF 00				.he 00
   305 41E0			c4r20
   306 41E0 00				.he 00
   307 41E1			c4r21
   308 41E1 00				.he 00
   309 41E2			c4r22
   310 41E2 00				.he 00
   311 41E3			c4r23
   312 41E3 00				.he 00
   313 41E4			c4r24
   314 41E4 00				.he 00
   315 41E5			c4r25
   316 41E5 00				.he 00
   317 41E6			c4r26
   318 41E6 00				.he 00
   319 41E7			c4r27
   320 41E7 00				.he 00
   321 41E8			c4r28
   322 41E8 00				.he 00
   323 41E9			c4r29
   324 41E9 00				.he 00
   325
   326 				; ------------	column #5
   327
   328 41EA			c5r0
   329 41EA 00				.he 00
   330 41EB			c5r1
   331 41EB 00				.he 00
   332 41EC			c5r2
   333 41EC 00				.he 00
   334 41ED			c5r3
   335 41ED 00				.he 00
   336 41EE			c5r4
   337 41EE 00				.he 00
   338 41EF			c5r5
   339 41EF 00				.he 00
   340 41F0			c5r6
   341 41F0 00				.he 00
   342 41F1			c5r7
   343 41F1 00				.he 00
   344 41F2			c5r8
   345 41F2 00				.he 00
   346 41F3			c5r9
   347 41F3 00				.he 00
   348 41F4			c5r10
   349 41F4 00				.he 00
   350 41F5			c5r11
   351 41F5 00				.he 00
   352 41F6			c5r12
   353 41F6 00				.he 00
   354 41F7			c5r13
   355 41F7 60				.he 60
   356 41F8 00 00 00 00 10 20 + 	.he 00 00 00 00 10 20 00 40
   357 4200 00 00 10 30 70 70 + 	.he 00 00 10 30 70 70 F0 F0
   358 4208			c5r14
   359 4208 60				.he 60
   360 4209 40 00 00 00 00 00 + 	.he 40 00 00 00 00 00 00 00
   361 4211 F0 F0 F0 F0 70 70 + 	.he F0 F0 F0 F0 70 70 30 10
   362 4219			c5r15
   363 4219 00				.he 00
   364 421A			c5r16
   365 421A 00				.he 00
   366 421B			c5r17
   367 421B 00				.he 00
   368 421C			c5r18
   369 421C 00				.he 00
   370 421D			c5r19
   371 421D 00				.he 00
   372 421E			c5r20
   373 421E 00				.he 00
   374 421F			c5r21
   375 421F 00				.he 00
   376 4220			c5r22
   377 4220 00				.he 00
   378 4221			c5r23
   379 4221 00				.he 00
   380 4222			c5r24
   381 4222 00				.he 00
   382 4223			c5r25
   383 4223 00				.he 00
   384 4224			c5r26
   385 4224 00				.he 00
   386 4225			c5r27
   387 4225 00				.he 00
   388 4226			c5r28
   389 4226 00				.he 00
   390 4227			c5r29
   391 4227 00				.he 00
   392
   393 				; ------------	column #6
   394
   395 4228			c6r0
   396 4228 00				.he 00
   397 4229			c6r1
   398 4229 00				.he 00
   399 422A			c6r2
   400 422A 00				.he 00
   401 422B			c6r3
   402 422B 00				.he 00
   403 422C			c6r4
   404 422C 00				.he 00
   405 422D			c6r5
   406 422D 00				.he 00
   407 422E			c6r6
   408 422E 00				.he 00
   409 422F			c6r7
   410 422F 00				.he 00
   411 4230			c6r8
   412 4230 00				.he 00
   413 4231			c6r9
   414 4231 00				.he 00
   415 4232			c6r10
   416 4232 00				.he 00
   417 4233			c6r11
   418 4233 00				.he 00
   419 4234			c6r12
   420 4234 00				.he 00
   421 4235			c6r13
   422 4235 20				.he 20
   423 4236 00 00 08 0C 0E 0E + 	.he 00 00 08 0C 0E 0E 0F 0F
   424 423E			c6r14
   425 423E 20				.he 20
   426 423F 0F 0F 0F 0F 0E 0E + 	.he 0F 0F 0F 0F 0E 0E 0C 08
   427 4247			c6r15
   428 4247 00				.he 00
   429 4248			c6r16
   430 4248 00				.he 00
   431 4249			c6r17
   432 4249 00				.he 00
   433 424A			c6r18
   434 424A 00				.he 00
   435 424B			c6r19
   436 424B 00				.he 00
   437 424C			c6r20
   438 424C 00				.he 00
   439 424D			c6r21
   440 424D 00				.he 00
   441 424E			c6r22
   442 424E 00				.he 00
   443 424F			c6r23
   444 424F 00				.he 00
   445 4250			c6r24
   446 4250 00				.he 00
   447 4251			c6r25
   448 4251 00				.he 00
   449 4252			c6r26
   450 4252 00				.he 00
   451 4253			c6r27
   452 4253 00				.he 00
   453 4254			c6r28
   454 4254 00				.he 00
   455 4255			c6r29
   456 4255 00				.he 00
   457
   458 				; ------------	column #7
   459
   460 4256			c7r0
   461 4256 00				.he 00
   462 4257			c7r1
   463 4257 00				.he 00
   464 4258			c7r2
   465 4258 00				.he 00
   466 4259			c7r3
   467 4259 00				.he 00
   468 425A			c7r4
   469 425A 00				.he 00
   470 425B			c7r5
   471 425B 00				.he 00
   472 425C			c7r6
   473 425C 00				.he 00
   474 425D			c7r7
   475 425D 00				.he 00
   476 425E			c7r8
   477 425E 00				.he 00
   478 425F			c7r9
   479 425F 00				.he 00
   480 4260			c7r10
   481 4260 00				.he 00
   482 4261			c7r11
   483 4261 00				.he 00
   484 4262			c7r12
   485 4262 00				.he 00
   486 4263			c7r13
   487 4263 00				.he 00
   488 4264			c7r14
   489 4264 00				.he 00
   490 4265			c7r15
   491 4265 00				.he 00
   492 4266			c7r16
   493 4266 00				.he 00
   494 4267			c7r17
   495 4267 00				.he 00
   496 4268			c7r18
   497 4268 00				.he 00
   498 4269			c7r19
   499 4269 00				.he 00
   500 426A			c7r20
   501 426A 00				.he 00
   502 426B			c7r21
   503 426B 00				.he 00
   504 426C			c7r22
   505 426C 00				.he 00
   506 426D			c7r23
   507 426D 00				.he 00
   508 426E			c7r24
   509 426E 20				.he 20
   510 426F 00 00 00 00 00 00 + 	.he 00 00 00 00 00 00 20 60
   511 4277			c7r25
   512 4277 60				.he 60
   513 4278 00 00 20 20 00 00 + 	.he 00 00 20 20 00 00 00 00
   514 4280 60 E0 E0 E0 E0 E0 + 	.he 60 E0 E0 E0 E0 E0 E0 60
   515 4288			c7r26
   516 4288 20				.he 20
   517 4289 60 20 00 00 00 00 + 	.he 60 20 00 00 00 00 00 00
   518 4291			c7r27
   519 4291 00				.he 00
   520 4292			c7r28
   521 4292 00				.he 00
   522 4293			c7r29
   523 4293 00				.he 00
   524
   525 				; ------------	column #8
   526
   527 4294			c8r0
   528 4294 00				.he 00
   529 4295			c8r1
   530 4295 00				.he 00
   531 4296			c8r2
   532 4296 00				.he 00
   533 4297			c8r3
   534 4297 00				.he 00
   535 4298			c8r4
   536 4298 00				.he 00
   537 4299			c8r5
   538 4299 00				.he 00
   539 429A			c8r6
   540 429A 00				.he 00
   541 429B			c8r7
   542 429B 00				.he 00
   543 429C			c8r8
   544 429C 00				.he 00
   545 429D			c8r9
   546 429D 00				.he 00
   547 429E			c8r10
   548 429E 00				.he 00
   549 429F			c8r11
   550 429F 00				.he 00
   551 42A0			c8r12
   552 42A0 00				.he 00
   553 42A1			c8r13
   554 42A1 00				.he 00
   555 42A2			c8r14
   556 42A2 00				.he 00
   557 42A3			c8r15
   558 42A3 00				.he 00
   559 42A4			c8r16
   560 42A4 00				.he 00
   561 42A5			c8r17
   562 42A5 00				.he 00
   563 42A6			c8r18
   564 42A6 00				.he 00
   565 42A7			c8r19
   566 42A7 00				.he 00
   567 42A8			c8r20
   568 42A8 00				.he 00
   569 42A9			c8r21
   570 42A9 00				.he 00
   571 42AA			c8r22
   572 42AA 00				.he 00
   573 42AB			c8r23
   574 42AB 00				.he 00
   575 42AC			c8r24
   576 42AC 60				.he 60
   577 42AD 00 00 00 00 00 00 + 	.he 00 00 00 00 00 00 00 08
   578 42B5 00 00 00 00 00 18 + 	.he 00 00 00 00 00 18 1C 1E
   579 42BD			c8r25
   580 42BD 60				.he 60
   581 42BE 10 00 00 00 00 00 + 	.he 10 00 00 00 00 00 00 00
   582 42C6 1E 1E 1E 1E 1E 1E + 	.he 1E 1E 1E 1E 1E 1E 1E 1E
   583 42CE			c8r26
   584 42CE 20				.he 20
   585 42CF 1E 1C 18 00 00 00 + 	.he 1E 1C 18 00 00 00 00 00
   586 42D7			c8r27
   587 42D7 00				.he 00
   588 42D8			c8r28
   589 42D8 00				.he 00
   590 42D9			c8r29
   591 42D9 00				.he 00
   592
   593 				; ------------	column #9
   594
   595 42DA			c9r0
   596 42DA 00				.he 00
   597 42DB			c9r1
   598 42DB 00				.he 00
   599 42DC			c9r2
   600 42DC 00				.he 00
   601 42DD			c9r3
   602 42DD 00				.he 00
   603 42DE			c9r4
   604 42DE 00				.he 00
   605 42DF			c9r5
   606 42DF 00				.he 00
   607 42E0			c9r6
   608 42E0 00				.he 00
   609 42E1			c9r7
   610 42E1 00				.he 00
   611 42E2			c9r8
   612 42E2 00				.he 00
   613 42E3			c9r9
   614 42E3 00				.he 00
   615 42E4			c9r10
   616 42E4 00				.he 00
   617 42E5			c9r11
   618 42E5 00				.he 00
   619 42E6			c9r12
   620 42E6 00				.he 00
   621 42E7			c9r13
   622 42E7 00				.he 00
   623 42E8			c9r14
   624 42E8 00				.he 00
   625 42E9			c9r15
   626 42E9 00				.he 00
   627 42EA			c9r16
   628 42EA 00				.he 00
   629 42EB			c9r17
   630 42EB 00				.he 00
   631 42EC			c9r18
   632 42EC 00				.he 00
   633 42ED			c9r19
   634 42ED 00				.he 00
   635 42EE			c9r20
   636 42EE 00				.he 00
   637 42EF			c9r21
   638 42EF 00				.he 00
   639 42F0			c9r22
   640 42F0 00				.he 00
   641 42F1			c9r23
   642 42F1 00				.he 00
   643 42F2			c9r24
   644 42F2 00				.he 00
   645 42F3			c9r25
   646 42F3 20				.he 20
   647 42F4 00 01 01 01 01 01 + 	.he 00 01 01 01 01 01 01 00
   648 42FC			c9r26
   649 42FC 00				.he 00
   650 42FD			c9r27
   651 42FD 00				.he 00
   652 42FE			c9r28
   653 42FE 00				.he 00
   654 42FF			c9r29
   655 42FF 00				.he 00
   656
   657 				; ------------	column #10
   658
   659 4300			c10r0
   660 4300 00				.he 00
   661 4301			c10r1
   662 4301 00				.he 00
   663 4302			c10r2
   664 4302 00				.he 00
   665 4303			c10r3
   666 4303 00				.he 00
   667 4304			c10r4
   668 4304 00				.he 00
   669 4305			c10r5
   670 4305 00				.he 00
   671 4306			c10r6
   672 4306 00				.he 00
   673 4307			c10r7
   674 4307 00				.he 00
   675 4308			c10r8
   676 4308 00				.he 00
   677 4309			c10r9
   678 4309 00				.he 00
   679 430A			c10r10
   680 430A 00				.he 00
   681 430B			c10r11
   682 430B 00				.he 00
   683 430C			c10r12
   684 430C 00				.he 00
   685 430D			c10r13
   686 430D 00				.he 00
   687 430E			c10r14
   688 430E 00				.he 00
   689 430F			c10r15
   690 430F 20				.he 20
   691 4310 00 00 00 00 00 00 + 	.he 00 00 00 00 00 00 00 10
   692 4318			c10r16
   693 4318 60				.he 60
   694 4319 00 10 20 00 40 40 + 	.he 00 10 20 00 40 40 00 00
   695 4321 30 70 70 F0 F0 F0 + 	.he 30 70 70 F0 F0 F0 F0 F0
   696 4329			c10r17
   697 4329 20				.he 20
   698 432A F0 70 70 30 10 00 + 	.he F0 70 70 30 10 00 00 00
   699 4332			c10r18
   700 4332 00				.he 00
   701 4333			c10r19
   702 4333 00				.he 00
   703 4334			c10r20
   704 4334 00				.he 00
   705 4335			c10r21
   706 4335 00				.he 00
   707 4336			c10r22
   708 4336 00				.he 00
   709 4337			c10r23
   710 4337 00				.he 00
   711 4338			c10r24
   712 4338 00				.he 00
   713 4339			c10r25
   714 4339 00				.he 00
   715 433A			c10r26
   716 433A 00				.he 00
   717 433B			c10r27
   718 433B 00				.he 00
   719 433C			c10r28
   720 433C 00				.he 00
   721 433D			c10r29
   722 433D 00				.he 00
   723
   724 				; ------------	column #11
   725
   726 433E			c11r0
   727 433E 00				.he 00
   728 433F			c11r1
   729 433F 00				.he 00
   730 4340			c11r2
   731 4340 00				.he 00
   732 4341			c11r3
   733 4341 00				.he 00
   734 4342			c11r4
   735 4342 00				.he 00
   736 4343			c11r5
   737 4343 00				.he 00
   738 4344			c11r6
   739 4344 00				.he 00
   740 4345			c11r7
   741 4345 00				.he 00
   742 4346			c11r8
   743 4346 00				.he 00
   744 4347			c11r9
   745 4347 00				.he 00
   746 4348			c11r10
   747 4348 00				.he 00
   748 4349			c11r11
   749 4349 00				.he 00
   750 434A			c11r12
   751 434A 00				.he 00
   752 434B			c11r13
   753 434B 00				.he 00
   754 434C			c11r14
   755 434C 00				.he 00
   756 434D			c11r15
   757 434D 20				.he 20
   758 434E 00 00 00 00 00 00 + 	.he 00 00 00 00 00 00 00 08
   759 4356			c11r16
   760 4356 20				.he 20
   761 4357 0C 0E 0E 0F 0F 0F + 	.he 0C 0E 0E 0F 0F 0F 0F 0F
   762 435F			c11r17
   763 435F 20				.he 20
   764 4360 0F 0E 0E 0C 08 00 + 	.he 0F 0E 0E 0C 08 00 00 00
   765 4368			c11r18
   766 4368 00				.he 00
   767 4369			c11r19
   768 4369 00				.he 00
   769 436A			c11r20
   770 436A 00				.he 00
   771 436B			c11r21
   772 436B 00				.he 00
   773 436C			c11r22
   774 436C 00				.he 00
   775 436D			c11r23
   776 436D 00				.he 00
   777 436E			c11r24
   778 436E 00				.he 00
   779 436F			c11r25
   780 436F 00				.he 00
   781 4370			c11r26
   782 4370 00				.he 00
   783 4371			c11r27
   784 4371 00				.he 00
   785 4372			c11r28
   786 4372 00				.he 00
   787 4373			c11r29
   788 4373 00				.he 00
   789
   790 				; ------------	column #12
   791
   792 4374			c12r0
   793 4374 00				.he 00
   794 4375			c12r1
   795 4375 00				.he 00
   796 4376			c12r2
   797 4376 00				.he 00
   798 4377			c12r3
   799 4377 00				.he 00
   800 4378			c12r4
   801 4378 00				.he 00
   802 4379			c12r5
   803 4379 00				.he 00
   804 437A			c12r6
   805 437A 00				.he 00
   806 437B			c12r7
   807 437B 00				.he 00
   808 437C			c12r8
   809 437C 00				.he 00
   810 437D			c12r9
   811 437D 00				.he 00
   812 437E			c12r10
   813 437E 60				.he 60
   814 437F 00 00 00 20 00 40 + 	.he 00 00 00 20 00 40 40 00
   815 4387 00 20 60 60 E0 E0 + 	.he 00 20 60 60 E0 E0 E0 E0
   816 438F			c12r11
   817 438F 20				.he 20
   818 4390 E0 E0 60 60 20 00 + 	.he E0 E0 60 60 20 00 00 00
   819 4398			c12r12
   820 4398 00				.he 00
   821 4399			c12r13
   822 4399 00				.he 00
   823 439A			c12r14
   824 439A 00				.he 00
   825 439B			c12r15
   826 439B 00				.he 00
   827 439C			c12r16
   828 439C 00				.he 00
   829 439D			c12r17
   830 439D 00				.he 00
   831 439E			c12r18
   832 439E 00				.he 00
   833 439F			c12r19
   834 439F 00				.he 00
   835 43A0			c12r20
   836 43A0 00				.he 00
   837 43A1			c12r21
   838 43A1 00				.he 00
   839 43A2			c12r22
   840 43A2 00				.he 00
   841 43A3			c12r23
   842 43A3 00				.he 00
   843 43A4			c12r24
   844 43A4 00				.he 00
   845 43A5			c12r25
   846 43A5 00				.he 00
   847 43A6			c12r26
   848 43A6 00				.he 00
   849 43A7			c12r27
   850 43A7 00				.he 00
   851 43A8			c12r28
   852 43A8 00				.he 00
   853 43A9			c12r29
   854 43A9 00				.he 00
   855
   856 				; ------------	column #13
   857
   858 43AA			c13r0
   859 43AA 00				.he 00
   860 43AB			c13r1
   861 43AB 00				.he 00
   862 43AC			c13r2
   863 43AC 00				.he 00
   864 43AD			c13r3
   865 43AD 00				.he 00
   866 43AE			c13r4
   867 43AE 00				.he 00
   868 43AF			c13r5
   869 43AF 00				.he 00
   870 43B0			c13r6
   871 43B0 00				.he 00
   872 43B1			c13r7
   873 43B1 00				.he 00
   874 43B2			c13r8
   875 43B2 00				.he 00
   876 43B3			c13r9
   877 43B3 00				.he 00
   878 43B4			c13r10
   879 43B4 60				.he 60
   880 43B5 00 00 10 00 00 00 + 	.he 00 00 10 00 00 00 00 00
   881 43BD 18 1C 1E 1E 1E 1E + 	.he 18 1C 1E 1E 1E 1E 1E 1E
   882 43C5			c13r11
   883 43C5 20				.he 20
   884 43C6 1E 1E 1E 1E 1C 18 + 	.he 1E 1E 1E 1E 1C 18 00 00
   885 43CE			c13r12
   886 43CE 00				.he 00
   887 43CF			c13r13
   888 43CF 00				.he 00
   889 43D0			c13r14
   890 43D0 00				.he 00
   891 43D1			c13r15
   892 43D1 00				.he 00
   893 43D2			c13r16
   894 43D2 00				.he 00
   895 43D3			c13r17
   896 43D3 00				.he 00
   897 43D4			c13r18
   898 43D4 00				.he 00
   899 43D5			c13r19
   900 43D5 00				.he 00
   901 43D6			c13r20
   902 43D6 00				.he 00
   903 43D7			c13r21
   904 43D7 00				.he 00
   905 43D8			c13r22
   906 43D8 00				.he 00
   907 43D9			c13r23
   908 43D9 00				.he 00
   909 43DA			c13r24
   910 43DA 00				.he 00
   911 43DB			c13r25
   912 43DB 00				.he 00
   913 43DC			c13r26
   914 43DC 00				.he 00
   915 43DD			c13r27
   916 43DD 00				.he 00
   917 43DE			c13r28
   918 43DE 00				.he 00
   919 43DF			c13r29
   920 43DF 00				.he 00
   921
   922 				; ------------	column #14
   923
   924 43E0			c14r0
   925 43E0 00				.he 00
   926 43E1			c14r1
   927 43E1 00				.he 00
   928 43E2			c14r2
   929 43E2 00				.he 00
   930 43E3			c14r3
   931 43E3 00				.he 00
   932 43E4			c14r4
   933 43E4 00				.he 00
   934 43E5			c14r5
   935 43E5 00				.he 00
   936 43E6			c14r6
   937 43E6 00				.he 00
   938 43E7			c14r7
   939 43E7 00				.he 00
   940 43E8			c14r8
   941 43E8 00				.he 00
   942 43E9			c14r9
   943 43E9 00				.he 00
   944 43EA			c14r10
   945 43EA 20				.he 20
   946 43EB 00 00 00 00 01 01 + 	.he 00 00 00 00 01 01 01 01
   947 43F3			c14r11
   948 43F3 20				.he 20
   949 43F4 01 01 00 00 00 00 + 	.he 01 01 00 00 00 00 00 00
   950 43FC			c14r12
   951 43FC 00				.he 00
   952 43FD			c14r13
   953 43FD 00				.he 00
   954 43FE			c14r14
   955 43FE 00				.he 00
   956 43FF			c14r15
   957 43FF 00				.he 00
   958 4400			c14r16
   959 4400 00				.he 00
   960 4401			c14r17
   961 4401 00				.he 00
   962 4402			c14r18
   963 4402 00				.he 00
   964 4403			c14r19
   965 4403 00				.he 00
   966 4404			c14r20
   967 4404 00				.he 00
   968 4405			c14r21
   969 4405 00				.he 00
   970 4406			c14r22
   971 4406 00				.he 00
   972 4407			c14r23
   973 4407 00				.he 00
   974 4408			c14r24
   975 4408 00				.he 00
   976 4409			c14r25
   977 4409 00				.he 00
   978 440A			c14r26
   979 440A 00				.he 00
   980 440B			c14r27
   981 440B 00				.he 00
   982 440C			c14r28
   983 440C 00				.he 00
   984 440D			c14r29
   985 440D 00				.he 00
   986
   987 				; ------------	column #15
   988
   989 440E			c15r0
   990 440E 00				.he 00
   991 440F			c15r1
   992 440F 00				.he 00
   993 4410			c15r2
   994 4410 00				.he 00
   995 4411			c15r3
   996 4411 00				.he 00
   997 4412			c15r4
   998 4412 08				.he 08
   999 4413 00 00 00 00 00 00 + 	.he 00 00 00 00 00 00 80 80
  1000 441B			c15r5
  1001 441B 08				.he 08
  1002 441C 80 80 80 80 00 00 + 	.he 80 80 80 80 00 00 00 00
  1003 4424			c15r6
  1004 4424 00				.he 00
  1005 4425			c15r7
  1006 4425 00				.he 00
  1007 4426			c15r8
  1008 4426 00				.he 00
  1009 4427			c15r9
  1010 4427 00				.he 00
  1011 4428			c15r10
  1012 4428 00				.he 00
  1013 4429			c15r11
  1014 4429 00				.he 00
  1015 442A			c15r12
  1016 442A 00				.he 00
  1017 442B			c15r13
  1018 442B 00				.he 00
  1019 442C			c15r14
  1020 442C 00				.he 00
  1021 442D			c15r15
  1022 442D 00				.he 00
  1023 442E			c15r16
  1024 442E 00				.he 00
  1025 442F			c15r17
  1026 442F 00				.he 00
  1027 4430			c15r18
  1028 4430 00				.he 00
  1029 4431			c15r19
  1030 4431 00				.he 00
  1031 4432			c15r20
  1032 4432 00				.he 00
  1033 4433			c15r21
  1034 4433 00				.he 00
  1035 4434			c15r22
  1036 4434 00				.he 00
  1037 4435			c15r23
  1038 4435 00				.he 00
  1039 4436			c15r24
  1040 4436 00				.he 00
  1041 4437			c15r25
  1042 4437 00				.he 00
  1043 4438			c15r26
  1044 4438 00				.he 00
  1045 4439			c15r27
  1046 4439 00				.he 00
  1047 443A			c15r28
  1048 443A 00				.he 00
  1049 443B			c15r29
  1050 443B 00				.he 00
  1051
  1052 				; ------------	column #16
  1053
  1054 443C			c16r0
  1055 443C 00				.he 00
  1056 443D			c16r1
  1057 443D 00				.he 00
  1058 443E			c16r2
  1059 443E 00				.he 00
  1060 443F			c16r3
  1061 443F 00				.he 00
  1062 4440			c16r4
  1063 4440 18				.he 18
  1064 4441 00 00 00 00 10 20 + 	.he 00 00 00 00 10 20 00 40
  1065 4449 00 00 18 38 78 78 + 	.he 00 00 18 38 78 78 78 78
  1066 4451			c16r5
  1067 4451 18				.he 18
  1068 4452 40 00 00 00 00 00 + 	.he 40 00 00 00 00 00 00 00
  1069 445A 78 78 78 78 78 78 + 	.he 78 78 78 78 78 78 38 18
  1070 4462			c16r6
  1071 4462 00				.he 00
  1072 4463			c16r7
  1073 4463 00				.he 00
  1074 4464			c16r8
  1075 4464 00				.he 00
  1076 4465			c16r9
  1077 4465 00				.he 00
  1078 4466			c16r10
  1079 4466 00				.he 00
  1080 4467			c16r11
  1081 4467 00				.he 00
  1082 4468			c16r12
  1083 4468 00				.he 00
  1084 4469			c16r13
  1085 4469 00				.he 00
  1086 446A			c16r14
  1087 446A 00				.he 00
  1088 446B			c16r15
  1089 446B 00				.he 00
  1090 446C			c16r16
  1091 446C 00				.he 00
  1092 446D			c16r17
  1093 446D 00				.he 00
  1094 446E			c16r18
  1095 446E 00				.he 00
  1096 446F			c16r19
  1097 446F 00				.he 00
  1098 4470			c16r20
  1099 4470 00				.he 00
  1100 4471			c16r21
  1101 4471 00				.he 00
  1102 4472			c16r22
  1103 4472 00				.he 00
  1104 4473			c16r23
  1105 4473 00				.he 00
  1106 4474			c16r24
  1107 4474 00				.he 00
  1108 4475			c16r25
  1109 4475 00				.he 00
  1110 4476			c16r26
  1111 4476 00				.he 00
  1112 4477			c16r27
  1113 4477 00				.he 00
  1114 4478			c16r28
  1115 4478 00				.he 00
  1116 4479			c16r29
  1117 4479 00				.he 00
  1118
  1119 				; ------------	column #17
  1120
  1121 447A			c17r0
  1122 447A 00				.he 00
  1123 447B			c17r1
  1124 447B 00				.he 00
  1125 447C			c17r2
  1126 447C 00				.he 00
  1127 447D			c17r3
  1128 447D 00				.he 00
  1129 447E			c17r4
  1130 447E 08				.he 08
  1131 447F 00 00 00 04 06 06 + 	.he 00 00 00 04 06 06 07 07
  1132 4487			c17r5
  1133 4487 08				.he 08
  1134 4488 07 07 07 07 06 06 + 	.he 07 07 07 07 06 06 04 00
  1135 4490			c17r6
  1136 4490 00				.he 00
  1137 4491			c17r7
  1138 4491 00				.he 00
  1139 4492			c17r8
  1140 4492 60				.he 60
  1141 4493 00 00 00 00 00 00 + 	.he 00 00 00 00 00 00 00 40
  1142 449B 00 00 00 00 40 40 + 	.he 00 00 00 00 40 40 C0 C0
  1143 44A3			c17r9
  1144 44A3 60				.he 60
  1145 44A4 40 00 00 00 00 00 + 	.he 40 00 00 00 00 00 00 00
  1146 44AC C0 C0 C0 C0 40 40 + 	.he C0 C0 C0 C0 40 40 00 00
  1147 44B4			c17r10
  1148 44B4 00				.he 00
  1149 44B5			c17r11
  1150 44B5 00				.he 00
  1151 44B6			c17r12
  1152 44B6 00				.he 00
  1153 44B7			c17r13
  1154 44B7 00				.he 00
  1155 44B8			c17r14
  1156 44B8 00				.he 00
  1157 44B9			c17r15
  1158 44B9 00				.he 00
  1159 44BA			c17r16
  1160 44BA 00				.he 00
  1161 44BB			c17r17
  1162 44BB 00				.he 00
  1163 44BC			c17r18
  1164 44BC 00				.he 00
  1165 44BD			c17r19
  1166 44BD 00				.he 00
  1167 44BE			c17r20
  1168 44BE 00				.he 00
  1169 44BF			c17r21
  1170 44BF 00				.he 00
  1171 44C0			c17r22
  1172 44C0 00				.he 00
  1173 44C1			c17r23
  1174 44C1 00				.he 00
  1175 44C2			c17r24
  1176 44C2 00				.he 00
  1177 44C3			c17r25
  1178 44C3 00				.he 00
  1179 44C4			c17r26
  1180 44C4 00				.he 00
  1181 44C5			c17r27
  1182 44C5 00				.he 00
  1183 44C6			c17r28
  1184 44C6 00				.he 00
  1185 44C7			c17r29
  1186 44C7 00				.he 00
  1187
  1188 				; ------------	column #18
  1189
  1190 44C8			c18r0
  1191 44C8 00				.he 00
  1192 44C9			c18r1
  1193 44C9 00				.he 00
  1194 44CA			c18r2
  1195 44CA 00				.he 00
  1196 44CB			c18r3
  1197 44CB 00				.he 00
  1198 44CC			c18r4
  1199 44CC 00				.he 00
  1200 44CD			c18r5
  1201 44CD 00				.he 00
  1202 44CE			c18r6
  1203 44CE 00				.he 00
  1204 44CF			c18r7
  1205 44CF 00				.he 00
  1206 44D0			c18r8
  1207 44D0 60				.he 60
  1208 44D1 00 00 00 00 10 20 + 	.he 00 00 00 00 10 20 00 00
  1209 44D9 00 00 18 3C 3C 3C + 	.he 00 00 18 3C 3C 3C 3C 3C
  1210 44E1			c18r9
  1211 44E1 20				.he 20
  1212 44E2 3C 3C 3C 3C 3C 3C + 	.he 3C 3C 3C 3C 3C 3C 3C 18
  1213 44EA			c18r10
  1214 44EA 00				.he 00
  1215 44EB			c18r11
  1216 44EB 00				.he 00
  1217 44EC			c18r12
  1218 44EC 00				.he 00
  1219 44ED			c18r13
  1220 44ED 00				.he 00
  1221 44EE			c18r14
  1222 44EE 00				.he 00
  1223 44EF			c18r15
  1224 44EF 00				.he 00
  1225 44F0			c18r16
  1226 44F0 00				.he 00
  1227 44F1			c18r17
  1228 44F1 00				.he 00
  1229 44F2			c18r18
  1230 44F2 00				.he 00
  1231 44F3			c18r19
  1232 44F3 20				.he 20
  1233 44F4 00 80 80 80 80 80 + 	.he 00 80 80 80 80 80 80 00
  1234 44FC			c18r20
  1235 44FC 00				.he 00
  1236 44FD			c18r21
  1237 44FD 00				.he 00
  1238 44FE			c18r22
  1239 44FE 00				.he 00
  1240 44FF			c18r23
  1241 44FF 00				.he 00
  1242 4500			c18r24
  1243 4500 00				.he 00
  1244 4501			c18r25
  1245 4501 00				.he 00
  1246 4502			c18r26
  1247 4502 00				.he 00
  1248 4503			c18r27
  1249 4503 00				.he 00
  1250 4504			c18r28
  1251 4504 00				.he 00
  1252 4505			c18r29
  1253 4505 00				.he 00
  1254
  1255 				; ------------	column #19
  1256
  1257 4506			c19r0
  1258 4506 00				.he 00
  1259 4507			c19r1
  1260 4507 00				.he 00
  1261 4508			c19r2
  1262 4508 00				.he 00
  1263 4509			c19r3
  1264 4509 00				.he 00
  1265 450A			c19r4
  1266 450A 00				.he 00
  1267 450B			c19r5
  1268 450B 00				.he 00
  1269 450C			c19r6
  1270 450C 00				.he 00
  1271 450D			c19r7
  1272 450D 00				.he 00
  1273 450E			c19r8
  1274 450E 20				.he 20
  1275 450F 00 00 00 00 02 02 + 	.he 00 00 00 00 02 02 03 03
  1276 4517			c19r9
  1277 4517 20				.he 20
  1278 4518 03 03 03 03 02 02 + 	.he 03 03 03 03 02 02 00 00
  1279 4520			c19r10
  1280 4520 00				.he 00
  1281 4521			c19r11
  1282 4521 00				.he 00
  1283 4522			c19r12
  1284 4522 00				.he 00
  1285 4523			c19r13
  1286 4523 00				.he 00
  1287 4524			c19r14
  1288 4524 00				.he 00
  1289 4525			c19r15
  1290 4525 00				.he 00
  1291 4526			c19r16
  1292 4526 00				.he 00
  1293 4527			c19r17
  1294 4527 00				.he 00
  1295 4528			c19r18
  1296 4528 60				.he 60
  1297 4529 00 00 00 00 00 00 + 	.he 00 00 00 00 00 00 00 10
  1298 4531 00 00 00 00 00 18 + 	.he 00 00 00 00 00 18 38 78
  1299 4539			c19r19
  1300 4539 60				.he 60
  1301 453A 20 00 40 40 00 00 + 	.he 20 00 40 40 00 00 00 00
  1302 4542 78 78 78 78 78 78 + 	.he 78 78 78 78 78 78 78 78
  1303 454A			c19r20
  1304 454A 20				.he 20
  1305 454B 78 38 18 00 00 00 + 	.he 78 38 18 00 00 00 00 00
  1306 4553			c19r21
  1307 4553 00				.he 00
  1308 4554			c19r22
  1309 4554 00				.he 00
  1310 4555			c19r23
  1311 4555 00				.he 00
  1312 4556			c19r24
  1313 4556 00				.he 00
  1314 4557			c19r25
  1315 4557 00				.he 00
  1316 4558			c19r26
  1317 4558 00				.he 00
  1318 4559			c19r27
  1319 4559 00				.he 00
  1320 455A			c19r28
  1321 455A 00				.he 00
  1322 455B			c19r29
  1323 455B 00				.he 00
  1324
  1325 				; ------------	column #20
  1326
  1327 455C			c20r0
  1328 455C 00				.he 00
  1329 455D			c20r1
  1330 455D 00				.he 00
  1331 455E			c20r2
  1332 455E 00				.he 00
  1333 455F			c20r3
  1334 455F 00				.he 00
  1335 4560			c20r4
  1336 4560 00				.he 00
  1337 4561			c20r5
  1338 4561 20				.he 20
  1339 4562 00 00 00 00 00 00 + 	.he 00 00 00 00 00 00 00 40
  1340 456A			c20r6
  1341 456A 60				.he 60
  1342 456B 00 00 40 40 00 00 + 	.he 00 00 40 40 00 00 00 00
  1343 4573 40 C0 C0 C0 C0 C0 + 	.he 40 C0 C0 C0 C0 C0 C0 40
  1344 457B			c20r7
  1345 457B 20				.he 20
  1346 457C 40 00 00 00 00 00 + 	.he 40 00 00 00 00 00 00 00
  1347 4584			c20r8
  1348 4584 00				.he 00
  1349 4585			c20r9
  1350 4585 00				.he 00
  1351 4586			c20r10
  1352 4586 00				.he 00
  1353 4587			c20r11
  1354 4587 00				.he 00
  1355 4588			c20r12
  1356 4588 00				.he 00
  1357 4589			c20r13
  1358 4589 00				.he 00
  1359 458A			c20r14
  1360 458A 00				.he 00
  1361 458B			c20r15
  1362 458B 00				.he 00
  1363 458C			c20r16
  1364 458C 00				.he 00
  1365 458D			c20r17
  1366 458D 00				.he 00
  1367 458E			c20r18
  1368 458E 20				.he 20
  1369 458F 00 00 00 00 00 00 + 	.he 00 00 00 00 00 00 04 06
  1370 4597			c20r19
  1371 4597 20				.he 20
  1372 4598 06 07 07 07 07 07 + 	.he 06 07 07 07 07 07 07 06
  1373 45A0			c20r20
  1374 45A0 20				.he 20
  1375 45A1 06 04 00 00 00 00 + 	.he 06 04 00 00 00 00 00 00
  1376 45A9			c20r21
  1377 45A9 00				.he 00
  1378 45AA			c20r22
  1379 45AA 00				.he 00
  1380 45AB			c20r23
  1381 45AB 00				.he 00
  1382 45AC			c20r24
  1383 45AC 00				.he 00
  1384 45AD			c20r25
  1385 45AD 00				.he 00
  1386 45AE			c20r26
  1387 45AE 00				.he 00
  1388 45AF			c20r27
  1389 45AF 00				.he 00
  1390 45B0			c20r28
  1391 45B0 00				.he 00
  1392 45B1			c20r29
  1393 45B1 00				.he 00
  1394
  1395 				; ------------	column #21
  1396
  1397 45B2			c21r0
  1398 45B2 00				.he 00
  1399 45B3			c21r1
  1400 45B3 00				.he 00
  1401 45B4			c21r2
  1402 45B4 00				.he 00
  1403 45B5			c21r3
  1404 45B5 00				.he 00
  1405 45B6			c21r4
  1406 45B6 00				.he 00
  1407 45B7			c21r5
  1408 45B7 60				.he 60
  1409 45B8 00 00 00 00 00 00 + 	.he 00 00 00 00 00 00 00 10
  1410 45C0 00 00 00 00 00 18 + 	.he 00 00 00 00 00 18 3C 3C
  1411 45C8			c21r6
  1412 45C8 60				.he 60
  1413 45C9 20 00 00 00 00 00 + 	.he 20 00 00 00 00 00 00 00
  1414 45D1 3C 3C 3C 3C 3C 3C + 	.he 3C 3C 3C 3C 3C 3C 3C 3C
  1415 45D9			c21r7
  1416 45D9 20				.he 20
  1417 45DA 3C 3C 18 00 00 00 + 	.he 3C 3C 18 00 00 00 00 00
  1418 45E2			c21r8
  1419 45E2 00				.he 00
  1420 45E3			c21r9
  1421 45E3 00				.he 00
  1422 45E4			c21r10
  1423 45E4 00				.he 00
  1424 45E5			c21r11
  1425 45E5 00				.he 00
  1426 45E6			c21r12
  1427 45E6 00				.he 00
  1428 45E7			c21r13
  1429 45E7 00				.he 00
  1430 45E8			c21r14
  1431 45E8 00				.he 00
  1432 45E9			c21r15
  1433 45E9 00				.he 00
  1434 45EA			c21r16
  1435 45EA 00				.he 00
  1436 45EB			c21r17
  1437 45EB 00				.he 00
  1438 45EC			c21r18
  1439 45EC 00				.he 00
  1440 45ED			c21r19
  1441 45ED 00				.he 00
  1442 45EE			c21r20
  1443 45EE 00				.he 00
  1444 45EF			c21r21
  1445 45EF 00				.he 00
  1446 45F0			c21r22
  1447 45F0 00				.he 00
  1448 45F1			c21r23
  1449 45F1 00				.he 00
  1450 45F2			c21r24
  1451 45F2 00				.he 00
  1452 45F3			c21r25
  1453 45F3 00				.he 00
  1454 45F4			c21r26
  1455 45F4 00				.he 00
  1456 45F5			c21r27
  1457 45F5 00				.he 00
  1458 45F6			c21r28
  1459 45F6 00				.he 00
  1460 45F7			c21r29
  1461 45F7 00				.he 00
  1462
  1463 				; ------------	column #22
  1464
  1465 45F8			c22r0
  1466 45F8 00				.he 00
  1467 45F9			c22r1
  1468 45F9 00				.he 00
  1469 45FA			c22r2
  1470 45FA 00				.he 00
  1471 45FB			c22r3
  1472 45FB 00				.he 00
  1473 45FC			c22r4
  1474 45FC 00				.he 00
  1475 45FD			c22r5
  1476 45FD 20				.he 20
  1477 45FE 00 00 00 00 00 00 + 	.he 00 00 00 00 00 00 00 02
  1478 4606			c22r6
  1479 4606 20				.he 20
  1480 4607 02 03 03 03 03 03 + 	.he 02 03 03 03 03 03 03 02
  1481 460F			c22r7
  1482 460F 20				.he 20
  1483 4610 02 00 00 00 00 00 + 	.he 02 00 00 00 00 00 00 00
  1484 4618			c22r8
  1485 4618 00				.he 00
  1486 4619			c22r9
  1487 4619 00				.he 00
  1488 461A			c22r10
  1489 461A 00				.he 00
  1490 461B			c22r11
  1491 461B 00				.he 00
  1492 461C			c22r12
  1493 461C 00				.he 00
  1494 461D			c22r13
  1495 461D 00				.he 00
  1496 461E			c22r14
  1497 461E 00				.he 00
  1498 461F			c22r15
  1499 461F 00				.he 00
  1500 4620			c22r16
  1501 4620 00				.he 00
  1502 4621			c22r17
  1503 4621 00				.he 00
  1504 4622			c22r18
  1505 4622 00				.he 00
  1506 4623			c22r19
  1507 4623 00				.he 00
  1508 4624			c22r20
  1509 4624 00				.he 00
  1510 4625			c22r21
  1511 4625 00				.he 00
  1512 4626			c22r22
  1513 4626 00				.he 00
  1514 4627			c22r23
  1515 4627 00				.he 00
  1516 4628			c22r24
  1517 4628 00				.he 00
  1518 4629			c22r25
  1519 4629 00				.he 00
  1520 462A			c22r26
  1521 462A 00				.he 00
  1522 462B			c22r27
  1523 462B 00				.he 00
  1524 462C			c22r28
  1525 462C 00				.he 00
  1526 462D			c22r29
  1527 462D 00				.he 00
  1528
  1529 				; ------------	column #23
  1530
  1531 462E			c23r0
  1532 462E 00				.he 00
  1533 462F			c23r1
  1534 462F 00				.he 00
  1535 4630			c23r2
  1536 4630 00				.he 00
  1537 4631			c23r3
  1538 4631 00				.he 00
  1539 4632			c23r4
  1540 4632 00				.he 00
  1541 4633			c23r5
  1542 4633 00				.he 00
  1543 4634			c23r6
  1544 4634 00				.he 00
  1545 4635			c23r7
  1546 4635 00				.he 00
  1547 4636			c23r8
  1548 4636 00				.he 00
  1549 4637			c23r9
  1550 4637 00				.he 00
  1551 4638			c23r10
  1552 4638 00				.he 00
  1553 4639			c23r11
  1554 4639 00				.he 00
  1555 463A			c23r12
  1556 463A 00				.he 00
  1557 463B			c23r13
  1558 463B 00				.he 00
  1559 463C			c23r14
  1560 463C 00				.he 00
  1561 463D			c23r15
  1562 463D 00				.he 00
  1563 463E			c23r16
  1564 463E 00				.he 00
  1565 463F			c23r17
  1566 463F 00				.he 00
  1567 4640			c23r18
  1568 4640 00				.he 00
  1569 4641			c23r19
  1570 4641 00				.he 00
  1571 4642			c23r20
  1572 4642 00				.he 00
  1573 4643			c23r21
  1574 4643 00				.he 00
  1575 4644			c23r22
  1576 4644 00				.he 00
  1577 4645			c23r23
  1578 4645 00				.he 00
  1579 4646			c23r24
  1580 4646 00				.he 00
  1581 4647			c23r25
  1582 4647 00				.he 00
  1583 4648			c23r26
  1584 4648 00				.he 00
  1585 4649			c23r27
  1586 4649 00				.he 00
  1587 464A			c23r28
  1588 464A 00				.he 00
  1589 464B			c23r29
  1590 464B 00				.he 00
  1591
  1592 				; ------------	column #24
  1593
  1594 464C			c24r0
  1595 464C 00				.he 00
  1596 464D			c24r1
  1597 464D 00				.he 00
  1598 464E			c24r2
  1599 464E 00				.he 00
  1600 464F			c24r3
  1601 464F 00				.he 00
  1602 4650			c24r4
  1603 4650 00				.he 00
  1604 4651			c24r5
  1605 4651 00				.he 00
  1606 4652			c24r6
  1607 4652 00				.he 00
  1608 4653			c24r7
  1609 4653 00				.he 00
  1610 4654			c24r8
  1611 4654 00				.he 00
  1612 4655			c24r9
  1613 4655 00				.he 00
  1614 4656			c24r10
  1615 4656 00				.he 00
  1616 4657			c24r11
  1617 4657 00				.he 00
  1618 4658			c24r12
  1619 4658 00				.he 00
  1620 4659			c24r13
  1621 4659 00				.he 00
  1622 465A			c24r14
  1623 465A 00				.he 00
  1624 465B			c24r15
  1625 465B 00				.he 00
  1626 465C			c24r16
  1627 465C 00				.he 00
  1628 465D			c24r17
  1629 465D 00				.he 00
  1630 465E			c24r18
  1631 465E 00				.he 00
  1632 465F			c24r19
  1633 465F 00				.he 00
  1634 4660			c24r20
  1635 4660 00				.he 00
  1636 4661			c24r21
  1637 4661 00				.he 00
  1638 4662			c24r22
  1639 4662 00				.he 00
  1640 4663			c24r23
  1641 4663 00				.he 00
  1642 4664			c24r24
  1643 4664 00				.he 00
  1644 4665			c24r25
  1645 4665 00				.he 00
  1646 4666			c24r26
  1647 4666 00				.he 00
  1648 4667			c24r27
  1649 4667 00				.he 00
  1650 4668			c24r28
  1651 4668 00				.he 00
  1652 4669			c24r29
  1653 4669 00				.he 00
  1654
  1655 				; ------------	column #25
  1656
  1657 466A			c25r0
  1658 466A 00				.he 00
  1659 466B			c25r1
  1660 466B 00				.he 00
  1661 466C			c25r2
  1662 466C 00				.he 00
  1663 466D			c25r3
  1664 466D 00				.he 00
  1665 466E			c25r4
  1666 466E 00				.he 00
  1667 466F			c25r5
  1668 466F 00				.he 00
  1669 4670			c25r6
  1670 4670 00				.he 00
  1671 4671			c25r7
  1672 4671 00				.he 00
  1673 4672			c25r8
  1674 4672 00				.he 00
  1675 4673			c25r9
  1676 4673 00				.he 00
  1677 4674			c25r10
  1678 4674 00				.he 00
  1679 4675			c25r11
  1680 4675 00				.he 00
  1681 4676			c25r12
  1682 4676 00				.he 00
  1683 4677			c25r13
  1684 4677 00				.he 00
  1685 4678			c25r14
  1686 4678 00				.he 00
  1687 4679			c25r15
  1688 4679 00				.he 00
  1689 467A			c25r16
  1690 467A 00				.he 00
  1691 467B			c25r17
  1692 467B 00				.he 00
  1693 467C			c25r18
  1694 467C 00				.he 00
  1695 467D			c25r19
  1696 467D 00				.he 00
  1697 467E			c25r20
  1698 467E 00				.he 00
  1699 467F			c25r21
  1700 467F 00				.he 00
  1701 4680			c25r22
  1702 4680 00				.he 00
  1703 4681			c25r23
  1704 4681 00				.he 00
  1705 4682			c25r24
  1706 4682 00				.he 00
  1707 4683			c25r25
  1708 4683 00				.he 00
  1709 4684			c25r26
  1710 4684 00				.he 00
  1711 4685			c25r27
  1712 4685 00				.he 00
  1713 4686			c25r28
  1714 4686 00				.he 00
  1715 4687			c25r29
  1716 4687 00				.he 00
  1717
  1718 				; ------------	column #26
  1719
  1720 4688			c26r0
  1721 4688 00				.he 00
  1722 4689			c26r1
  1723 4689 00				.he 00
  1724 468A			c26r2
  1725 468A 00				.he 00
  1726 468B			c26r3
  1727 468B 00				.he 00
  1728 468C			c26r4
  1729 468C 00				.he 00
  1730 468D			c26r5
  1731 468D 00				.he 00
  1732 468E			c26r6
  1733 468E 00				.he 00
  1734 468F			c26r7
  1735 468F 00				.he 00
  1736 4690			c26r8
  1737 4690 00				.he 00
  1738 4691			c26r9
  1739 4691 00				.he 00
  1740 4692			c26r10
  1741 4692 00				.he 00
  1742 4693			c26r11
  1743 4693 00				.he 00
  1744 4694			c26r12
  1745 4694 00				.he 00
  1746 4695			c26r13
  1747 4695 00				.he 00
  1748 4696			c26r14
  1749 4696 00				.he 00
  1750 4697			c26r15
  1751 4697 00				.he 00
  1752 4698			c26r16
  1753 4698 00				.he 00
  1754 4699			c26r17
  1755 4699 00				.he 00
  1756 469A			c26r18
  1757 469A 00				.he 00
  1758 469B			c26r19
  1759 469B 00				.he 00
  1760 469C			c26r20
  1761 469C 00				.he 00
  1762 469D			c26r21
  1763 469D 00				.he 00
  1764 469E			c26r22
  1765 469E 00				.he 00
  1766 469F			c26r23
  1767 469F 00				.he 00
  1768 46A0			c26r24
  1769 46A0 00				.he 00
  1770 46A1			c26r25
  1771 46A1 00				.he 00
  1772 46A2			c26r26
  1773 46A2 00				.he 00
  1774 46A3			c26r27
  1775 46A3 00				.he 00
  1776 46A4			c26r28
  1777 46A4 00				.he 00
  1778 46A5			c26r29
  1779 46A5 00				.he 00
  1780
  1781 				; ------------	column #27
  1782
  1783 46A6			c27r0
  1784 46A6 00				.he 00
  1785 46A7			c27r1
  1786 46A7 00				.he 00
  1787 46A8			c27r2
  1788 46A8 00				.he 00
  1789 46A9			c27r3
  1790 46A9 00				.he 00
  1791 46AA			c27r4
  1792 46AA 00				.he 00
  1793 46AB			c27r5
  1794 46AB 00				.he 00
  1795 46AC			c27r6
  1796 46AC 00				.he 00
  1797 46AD			c27r7
  1798 46AD 00				.he 00
  1799 46AE			c27r8
  1800 46AE 00				.he 00
  1801 46AF			c27r9
  1802 46AF 00				.he 00
  1803 46B0			c27r10
  1804 46B0 00				.he 00
  1805 46B1			c27r11
  1806 46B1 00				.he 00
  1807 46B2			c27r12
  1808 46B2 00				.he 00
  1809 46B3			c27r13
  1810 46B3 08				.he 08
  1811 46B4 00 00 00 00 00 40 + 	.he 00 00 00 00 00 40 40 C0
  1812 46BC			c27r14
  1813 46BC 18				.he 18
  1814 46BD 40 40 00 00 00 00 + 	.he 40 40 00 00 00 00 00 00
  1815 46C5 C0 C0 C0 C0 C0 40 + 	.he C0 C0 C0 C0 C0 40 40 00
  1816 46CD			c27r15
  1817 46CD 00				.he 00
  1818 46CE			c27r16
  1819 46CE 00				.he 00
  1820 46CF			c27r17
  1821 46CF 00				.he 00
  1822 46D0			c27r18
  1823 46D0 00				.he 00
  1824 46D1			c27r19
  1825 46D1 00				.he 00
  1826 46D2			c27r20
  1827 46D2 00				.he 00
  1828 46D3			c27r21
  1829 46D3 00				.he 00
  1830 46D4			c27r22
  1831 46D4 00				.he 00
  1832 46D5			c27r23
  1833 46D5 00				.he 00
  1834 46D6			c27r24
  1835 46D6 00				.he 00
  1836 46D7			c27r25
  1837 46D7 00				.he 00
  1838 46D8			c27r26
  1839 46D8 00				.he 00
  1840 46D9			c27r27
  1841 46D9 00				.he 00
  1842 46DA			c27r28
  1843 46DA 00				.he 00
  1844 46DB			c27r29
  1845 46DB 00				.he 00
  1846
  1847 				; ------------	column #28
  1848
  1849 46DC			c28r0
  1850 46DC 00				.he 00
  1851 46DD			c28r1
  1852 46DD 00				.he 00
  1853 46DE			c28r2
  1854 46DE 00				.he 00
  1855 46DF			c28r3
  1856 46DF 00				.he 00
  1857 46E0			c28r4
  1858 46E0 00				.he 00
  1859 46E1			c28r5
  1860 46E1 00				.he 00
  1861 46E2			c28r6
  1862 46E2 00				.he 00
  1863 46E3			c28r7
  1864 46E3 00				.he 00
  1865 46E4			c28r8
  1866 46E4 00				.he 00
  1867 46E5			c28r9
  1868 46E5 00				.he 00
  1869 46E6			c28r10
  1870 46E6 00				.he 00
  1871 46E7			c28r11
  1872 46E7 00				.he 00
  1873 46E8			c28r12
  1874 46E8 00				.he 00
  1875 46E9			c28r13
  1876 46E9 18				.he 18
  1877 46EA 00 00 00 00 00 10 + 	.he 00 00 00 00 00 10 20 00
  1878 46F2 00 00 00 18 3C 3C + 	.he 00 00 00 18 3C 3C 3C 3C
  1879 46FA			c28r14
  1880 46FA 08				.he 08
  1881 46FB 3C 3C 3C 3C 3C 3C + 	.he 3C 3C 3C 3C 3C 3C 3C 3C
  1882 4703			c28r15
  1883 4703 08				.he 08
  1884 4704 18 00 00 00 00 00 + 	.he 18 00 00 00 00 00 00 00
  1885 470C			c28r16
  1886 470C 00				.he 00
  1887 470D			c28r17
  1888 470D 00				.he 00
  1889 470E			c28r18
  1890 470E 00				.he 00
  1891 470F			c28r19
  1892 470F 00				.he 00
  1893 4710			c28r20
  1894 4710 00				.he 00
  1895 4711			c28r21
  1896 4711 00				.he 00
  1897 4712			c28r22
  1898 4712 00				.he 00
  1899 4713			c28r23
  1900 4713 00				.he 00
  1901 4714			c28r24
  1902 4714 00				.he 00
  1903 4715			c28r25
  1904 4715 00				.he 00
  1905 4716			c28r26
  1906 4716 00				.he 00
  1907 4717			c28r27
  1908 4717 00				.he 00
  1909 4718			c28r28
  1910 4718 00				.he 00
  1911 4719			c28r29
  1912 4719 00				.he 00
  1913
  1914 				; ------------	column #29
  1915
  1916 471A			c29r0
  1917 471A 00				.he 00
  1918 471B			c29r1
  1919 471B 00				.he 00
  1920 471C			c29r2
  1921 471C 00				.he 00
  1922 471D			c29r3
  1923 471D 00				.he 00
  1924 471E			c29r4
  1925 471E 00				.he 00
  1926 471F			c29r5
  1927 471F 00				.he 00
  1928 4720			c29r6
  1929 4720 00				.he 00
  1930 4721			c29r7
  1931 4721 00				.he 00
  1932 4722			c29r8
  1933 4722 00				.he 00
  1934 4723			c29r9
  1935 4723 00				.he 00
  1936 4724			c29r10
  1937 4724 00				.he 00
  1938 4725			c29r11
  1939 4725 00				.he 00
  1940 4726			c29r12
  1941 4726 00				.he 00
  1942 4727			c29r13
  1943 4727 08				.he 08
  1944 4728 00 00 00 00 00 02 + 	.he 00 00 00 00 00 02 02 03
  1945 4730			c29r14
  1946 4730 08				.he 08
  1947 4731 03 03 03 03 03 02 + 	.he 03 03 03 03 03 02 02 00
  1948 4739			c29r15
  1949 4739 00				.he 00
  1950 473A			c29r16
  1951 473A 00				.he 00
  1952 473B			c29r17
  1953 473B 00				.he 00
  1954 473C			c29r18
  1955 473C 00				.he 00
  1956 473D			c29r19
  1957 473D 00				.he 00
  1958 473E			c29r20
  1959 473E 00				.he 00
  1960 473F			c29r21
  1961 473F 00				.he 00
  1962 4740			c29r22
  1963 4740 00				.he 00
  1964 4741			c29r23
  1965 4741 00				.he 00
  1966 4742			c29r24
  1967 4742 00				.he 00
  1968 4743			c29r25
  1969 4743 00				.he 00
  1970 4744			c29r26
  1971 4744 00				.he 00
  1972 4745			c29r27
  1973 4745 00				.he 00
  1974 4746			c29r28
  1975 4746 00				.he 00
  1976 4747			c29r29
  1977 4747 00				.he 00
  1978
  1979 				; ------------	column #30
  1980
  1981 4748			c30r0
  1982 4748 00				.he 00
  1983 4749			c30r1
  1984 4749 00				.he 00
  1985 474A			c30r2
  1986 474A 00				.he 00
  1987 474B			c30r3
  1988 474B 00				.he 00
  1989 474C			c30r4
  1990 474C 00				.he 00
  1991 474D			c30r5
  1992 474D 00				.he 00
  1993 474E			c30r6
  1994 474E 00				.he 00
  1995 474F			c30r7
  1996 474F 00				.he 00
  1997 4750			c30r8
  1998 4750 00				.he 00
  1999 4751			c30r9
  2000 4751 00				.he 00
  2001 4752			c30r10
  2002 4752 00				.he 00
  2003 4753			c30r11
  2004 4753 00				.he 00
  2005 4754			c30r12
  2006 4754 00				.he 00
  2007 4755			c30r13
  2008 4755 00				.he 00
  2009 4756			c30r14
  2010 4756 00				.he 00
  2011 4757			c30r15
  2012 4757 00				.he 00
  2013 4758			c30r16
  2014 4758 00				.he 00
  2015 4759			c30r17
  2016 4759 00				.he 00
  2017 475A			c30r18
  2018 475A 00				.he 00
  2019 475B			c30r19
  2020 475B 00				.he 00
  2021 475C			c30r20
  2022 475C 00				.he 00
  2023 475D			c30r21
  2024 475D 00				.he 00
  2025 475E			c30r22
  2026 475E 00				.he 00
  2027 475F			c30r23
  2028 475F 00				.he 00
  2029 4760			c30r24
  2030 4760 00				.he 00
  2031 4761			c30r25
  2032 4761 00				.he 00
  2033 4762			c30r26
  2034 4762 00				.he 00
  2035 4763			c30r27
  2036 4763 00				.he 00
  2037 4764			c30r28
  2038 4764 00				.he 00
  2039 4765			c30r29
  2040 4765 00				.he 00
  2041
  2042 				; ------------	column #31
  2043
  2044 4766			c31r0
  2045 4766 00				.he 00
  2046 4767			c31r1
  2047 4767 00				.he 00
  2048 4768			c31r2
  2049 4768 00				.he 00
  2050 4769			c31r3
  2051 4769 00				.he 00
  2052 476A			c31r4
  2053 476A 00				.he 00
  2054 476B			c31r5
  2055 476B 00				.he 00
  2056 476C			c31r6
  2057 476C 00				.he 00
  2058 476D			c31r7
  2059 476D 00				.he 00
  2060 476E			c31r8
  2061 476E 00				.he 00
  2062 476F			c31r9
  2063 476F 00				.he 00
  2064 4770			c31r10
  2065 4770 00				.he 00
  2066 4771			c31r11
  2067 4771 00				.he 00
  2068 4772			c31r12
  2069 4772 00				.he 00
  2070 4773			c31r13
  2071 4773 00				.he 00
  2072 4774			c31r14
  2073 4774 00				.he 00
  2074 4775			c31r15
  2075 4775 00				.he 00
  2076 4776			c31r16
  2077 4776 00				.he 00
  2078 4777			c31r17
  2079 4777 00				.he 00
  2080 4778			c31r18
  2081 4778 00				.he 00
  2082 4779			c31r19
  2083 4779 00				.he 00
  2084 477A			c31r20
  2085 477A 00				.he 00
  2086 477B			c31r21
  2087 477B 00				.he 00
  2088 477C			c31r22
  2089 477C 00				.he 00
  2090 477D			c31r23
  2091 477D 00				.he 00
  2092 477E			c31r24
  2093 477E 00				.he 00
  2094 477F			c31r25
  2095 477F 00				.he 00
  2096 4780			c31r26
  2097 4780 00				.he 00
  2098 4781			c31r27
  2099 4781 00				.he 00
  2100 4782			c31r28
  2101 4782 00				.he 00
  2102 4783			c31r29
  2103 4783 00				.he 00
  2104
  2105 				; ------------	column #32
  2106
  2107 4784			c32r0
  2108 4784 00				.he 00
  2109 4785			c32r1
  2110 4785 00				.he 00
  2111 4786			c32r2
  2112 4786 00				.he 00
  2113 4787			c32r3
  2114 4787 00				.he 00
  2115 4788			c32r4
  2116 4788 00				.he 00
  2117 4789			c32r5
  2118 4789 00				.he 00
  2119 478A			c32r6
  2120 478A 00				.he 00
  2121 478B			c32r7
  2122 478B 00				.he 00
  2123 478C			c32r8
  2124 478C 00				.he 00
  2125 478D			c32r9
  2126 478D 00				.he 00
  2127 478E			c32r10
  2128 478E 00				.he 00
  2129 478F			c32r11
  2130 478F 00				.he 00
  2131 4790			c32r12
  2132 4790 00				.he 00
  2133 4791			c32r13
  2134 4791 00				.he 00
  2135 4792			c32r14
  2136 4792 00				.he 00
  2137 4793			c32r15
  2138 4793 00				.he 00
  2139 4794			c32r16
  2140 4794 00				.he 00
  2141 4795			c32r17
  2142 4795 00				.he 00
  2143 4796			c32r18
  2144 4796 00				.he 00
  2145 4797			c32r19
  2146 4797 00				.he 00
  2147 4798			c32r20
  2148 4798 00				.he 00
  2149 4799			c32r21
  2150 4799 00				.he 00
  2151 479A			c32r22
  2152 479A 00				.he 00
  2153 479B			c32r23
  2154 479B 00				.he 00
  2155 479C			c32r24
  2156 479C 00				.he 00
  2157 479D			c32r25
  2158 479D 00				.he 00
  2159 479E			c32r26
  2160 479E 00				.he 00
  2161 479F			c32r27
  2162 479F 00				.he 00
  2163 47A0			c32r28
  2164 47A0 00				.he 00
  2165 47A1			c32r29
  2166 47A1 00				.he 00
  2167
  2168 				; ------------	column #33
  2169
  2170 47A2			c33r0
  2171 47A2 00				.he 00
  2172 47A3			c33r1
  2173 47A3 00				.he 00
  2174 47A4			c33r2
  2175 47A4 00				.he 00
  2176 47A5			c33r3
  2177 47A5 00				.he 00
  2178 47A6			c33r4
  2179 47A6 00				.he 00
  2180 47A7			c33r5
  2181 47A7 00				.he 00
  2182 47A8			c33r6
  2183 47A8 00				.he 00
  2184 47A9			c33r7
  2185 47A9 00				.he 00
  2186 47AA			c33r8
  2187 47AA 00				.he 00
  2188 47AB			c33r9
  2189 47AB 00				.he 00
  2190 47AC			c33r10
  2191 47AC 00				.he 00
  2192 47AD			c33r11
  2193 47AD 00				.he 00
  2194 47AE			c33r12
  2195 47AE 00				.he 00
  2196 47AF			c33r13
  2197 47AF 00				.he 00
  2198 47B0			c33r14
  2199 47B0 00				.he 00
  2200 47B1			c33r15
  2201 47B1 00				.he 00
  2202 47B2			c33r16
  2203 47B2 00				.he 00
  2204 47B3			c33r17
  2205 47B3 00				.he 00
  2206 47B4			c33r18
  2207 47B4 00				.he 00
  2208 47B5			c33r19
  2209 47B5 00				.he 00
  2210 47B6			c33r20
  2211 47B6 00				.he 00
  2212 47B7			c33r21
  2213 47B7 00				.he 00
  2214 47B8			c33r22
  2215 47B8 00				.he 00
  2216 47B9			c33r23
  2217 47B9 00				.he 00
  2218 47BA			c33r24
  2219 47BA 00				.he 00
  2220 47BB			c33r25
  2221 47BB 00				.he 00
  2222 47BC			c33r26
  2223 47BC 00				.he 00
  2224 47BD			c33r27
  2225 47BD 00				.he 00
  2226 47BE			c33r28
  2227 47BE 00				.he 00
  2228 47BF			c33r29
  2229 47BF 00				.he 00
  2230
  2231 				; ------------	column #34
  2232
  2233 47C0			c34r0
  2234 47C0 00				.he 00
  2235 47C1			c34r1
  2236 47C1 00				.he 00
  2237 47C2			c34r2
  2238 47C2 00				.he 00
  2239 47C3			c34r3
  2240 47C3 00				.he 00
  2241 47C4			c34r4
  2242 47C4 00				.he 00
  2243 47C5			c34r5
  2244 47C5 00				.he 00
  2245 47C6			c34r6
  2246 47C6 00				.he 00
  2247 47C7			c34r7
  2248 47C7 00				.he 00
  2249 47C8			c34r8
  2250 47C8 00				.he 00
  2251 47C9			c34r9
  2252 47C9 00				.he 00
  2253 47CA			c34r10
  2254 47CA 00				.he 00
  2255 47CB			c34r11
  2256 47CB 00				.he 00
  2257 47CC			c34r12
  2258 47CC 00				.he 00
  2259 47CD			c34r13
  2260 47CD 00				.he 00
  2261 47CE			c34r14
  2262 47CE 00				.he 00
  2263 47CF			c34r15
  2264 47CF 00				.he 00
  2265 47D0			c34r16
  2266 47D0 00				.he 00
  2267 47D1			c34r17
  2268 47D1 00				.he 00
  2269 47D2			c34r18
  2270 47D2 00				.he 00
  2271 47D3			c34r19
  2272 47D3 00				.he 00
  2273 47D4			c34r20
  2274 47D4 00				.he 00
  2275 47D5			c34r21
  2276 47D5 00				.he 00
  2277 47D6			c34r22
  2278 47D6 00				.he 00
  2279 47D7			c34r23
  2280 47D7 00				.he 00
  2281 47D8			c34r24
  2282 47D8 00				.he 00
  2283 47D9			c34r25
  2284 47D9 00				.he 00
  2285 47DA			c34r26
  2286 47DA 00				.he 00
  2287 47DB			c34r27
  2288 47DB 00				.he 00
  2289 47DC			c34r28
  2290 47DC 00				.he 00
  2291 47DD			c34r29
  2292 47DD 00				.he 00
  2293
  2294 				; ------------	column #35
  2295
  2296 47DE			c35r0
  2297 47DE 00				.he 00
  2298 47DF			c35r1
  2299 47DF 00				.he 00
  2300 47E0			c35r2
  2301 47E0 00				.he 00
  2302 47E1			c35r3
  2303 47E1 00				.he 00
  2304 47E2			c35r4
  2305 47E2 00				.he 00
  2306 47E3			c35r5
  2307 47E3 00				.he 00
  2308 47E4			c35r6
  2309 47E4 00				.he 00
  2310 47E5			c35r7
  2311 47E5 00				.he 00
  2312 47E6			c35r8
  2313 47E6 00				.he 00
  2314 47E7			c35r9
  2315 47E7 00				.he 00
  2316 47E8			c35r10
  2317 47E8 18				.he 18
  2318 47E9 00 00 00 00 00 40 + 	.he 00 00 00 00 00 40 40 00
  2319 47F1 00 00 40 40 C0 C0 + 	.he 00 00 40 40 C0 C0 C0 C0
  2320 47F9			c35r11
  2321 47F9 08				.he 08
  2322 47FA C0 C0 40 40 00 00 + 	.he C0 C0 40 40 00 00 00 00
  2323 4802			c35r12
  2324 4802 00				.he 00
  2325 4803			c35r13
  2326 4803 00				.he 00
  2327 4804			c35r14
  2328 4804 00				.he 00
  2329 4805			c35r15
  2330 4805 00				.he 00
  2331 4806			c35r16
  2332 4806 00				.he 00
  2333 4807			c35r17
  2334 4807 00				.he 00
  2335 4808			c35r18
  2336 4808 00				.he 00
  2337 4809			c35r19
  2338 4809 00				.he 00
  2339 480A			c35r20
  2340 480A 00				.he 00
  2341 480B			c35r21
  2342 480B 00				.he 00
  2343 480C			c35r22
  2344 480C 00				.he 00
  2345 480D			c35r23
  2346 480D 00				.he 00
  2347 480E			c35r24
  2348 480E 00				.he 00
  2349 480F			c35r25
  2350 480F 00				.he 00
  2351 4810			c35r26
  2352 4810 00				.he 00
  2353 4811			c35r27
  2354 4811 00				.he 00
  2355 4812			c35r28
  2356 4812 00				.he 00
  2357 4813			c35r29
  2358 4813 00				.he 00
  2359
  2360 				; ------------	column #36
  2361
  2362 4814			c36r0
  2363 4814 00				.he 00
  2364 4815			c36r1
  2365 4815 00				.he 00
  2366 4816			c36r2
  2367 4816 00				.he 00
  2368 4817			c36r3
  2369 4817 00				.he 00
  2370 4818			c36r4
  2371 4818 00				.he 00
  2372 4819			c36r5
  2373 4819 00				.he 00
  2374 481A			c36r6
  2375 481A 00				.he 00
  2376 481B			c36r7
  2377 481B 00				.he 00
  2378 481C			c36r8
  2379 481C 00				.he 00
  2380 481D			c36r9
  2381 481D 00				.he 00
  2382 481E			c36r10
  2383 481E 18				.he 18
  2384 481F 00 00 10 20 00 00 + 	.he 00 00 10 20 00 00 00 00
  2385 4827 18 3C 3C 3C 3C 3C + 	.he 18 3C 3C 3C 3C 3C 3C 3C
  2386 482F			c36r11
  2387 482F 08				.he 08
  2388 4830 3C 3C 3C 3C 3C 18 + 	.he 3C 3C 3C 3C 3C 18 00 00
  2389 4838			c36r12
  2390 4838 00				.he 00
  2391 4839			c36r13
  2392 4839 00				.he 00
  2393 483A			c36r14
  2394 483A 00				.he 00
  2395 483B			c36r15
  2396 483B 00				.he 00
  2397 483C			c36r16
  2398 483C 00				.he 00
  2399 483D			c36r17
  2400 483D 00				.he 00
  2401 483E			c36r18
  2402 483E 00				.he 00
  2403 483F			c36r19
  2404 483F 00				.he 00
  2405 4840			c36r20
  2406 4840 00				.he 00
  2407 4841			c36r21
  2408 4841 00				.he 00
  2409 4842			c36r22
  2410 4842 60				.he 60
  2411 4843 00 00 00 00 00 00 + 	.he 00 00 00 00 00 00 00 10
  2412 484B 00 00 00 00 00 10 + 	.he 00 00 00 00 00 10 30 70
  2413 4853			c36r23
  2414 4853 60				.he 60
  2415 4854 20 00 40 40 00 00 + 	.he 20 00 40 40 00 00 00 00
  2416 485C 70 F0 F0 F0 F0 F0 + 	.he 70 F0 F0 F0 F0 F0 F0 70
  2417 4864			c36r24
  2418 4864 20				.he 20
  2419 4865 70 30 10 00 00 00 + 	.he 70 30 10 00 00 00 00 00
  2420 486D			c36r25
  2421 486D 00				.he 00
  2422 486E			c36r26
  2423 486E 00				.he 00
  2424 486F			c36r27
  2425 486F 00				.he 00
  2426 4870			c36r28
  2427 4870 00				.he 00
  2428 4871			c36r29
  2429 4871 00				.he 00
  2430
  2431 				; ------------	column #37
  2432
  2433 4872			c37r0
  2434 4872 00				.he 00
  2435 4873			c37r1
  2436 4873 00				.he 00
  2437 4874			c37r2
  2438 4874 00				.he 00
  2439 4875			c37r3
  2440 4875 00				.he 00
  2441 4876			c37r4
  2442 4876 00				.he 00
  2443 4877			c37r5
  2444 4877 00				.he 00
  2445 4878			c37r6
  2446 4878 00				.he 00
  2447 4879			c37r7
  2448 4879 00				.he 00
  2449 487A			c37r8
  2450 487A 00				.he 00
  2451 487B			c37r9
  2452 487B 00				.he 00
  2453 487C			c37r10
  2454 487C 08				.he 08
  2455 487D 00 00 02 02 03 03 + 	.he 00 00 02 02 03 03 03 03
  2456 4885			c37r11
  2457 4885 08				.he 08
  2458 4886 03 03 02 02 00 00 + 	.he 03 03 02 02 00 00 00 00
  2459 488E			c37r12
  2460 488E 00				.he 00
  2461 488F			c37r13
  2462 488F 00				.he 00
  2463 4890			c37r14
  2464 4890 00				.he 00
  2465 4891			c37r15
  2466 4891 00				.he 00
  2467 4892			c37r16
  2468 4892 00				.he 00
  2469 4893			c37r17
  2470 4893 00				.he 00
  2471 4894			c37r18
  2472 4894 00				.he 00
  2473 4895			c37r19
  2474 4895 00				.he 00
  2475 4896			c37r20
  2476 4896 00				.he 00
  2477 4897			c37r21
  2478 4897 00				.he 00
  2479 4898			c37r22
  2480 4898 20				.he 20
  2481 4899 00 00 00 00 00 08 + 	.he 00 00 00 00 00 08 0C 0E
  2482 48A1			c37r23
  2483 48A1 20				.he 20
  2484 48A2 0E 0F 0F 0F 0F 0F + 	.he 0E 0F 0F 0F 0F 0F 0F 0E
  2485 48AA			c37r24
  2486 48AA 20				.he 20
  2487 48AB 0E 0C 08 00 00 00 + 	.he 0E 0C 08 00 00 00 00 00
  2488 48B3			c37r25
  2489 48B3 00				.he 00
  2490 48B4			c37r26
  2491 48B4 00				.he 00
  2492 48B5			c37r27
  2493 48B5 00				.he 00
  2494 48B6			c37r28
  2495 48B6 00				.he 00
  2496 48B7			c37r29
  2497 48B7 00				.he 00
  2498
  2499 				; ------------	column #38
  2500
  2501 48B8			c38r0
  2502 48B8 00				.he 00
  2503 48B9			c38r1
  2504 48B9 00				.he 00
  2505 48BA			c38r2
  2506 48BA 00				.he 00
  2507 48BB			c38r3
  2508 48BB 00				.he 00
  2509 48BC			c38r4
  2510 48BC 00				.he 00
  2511 48BD			c38r5
  2512 48BD 00				.he 00
  2513 48BE			c38r6
  2514 48BE 00				.he 00
  2515 48BF			c38r7
  2516 48BF 00				.he 00
  2517 48C0			c38r8
  2518 48C0 00				.he 00
  2519 48C1			c38r9
  2520 48C1 00				.he 00
  2521 48C2			c38r10
  2522 48C2 00				.he 00
  2523 48C3			c38r11
  2524 48C3 00				.he 00
  2525 48C4			c38r12
  2526 48C4 00				.he 00
  2527 48C5			c38r13
  2528 48C5 00				.he 00
  2529 48C6			c38r14
  2530 48C6 00				.he 00
  2531 48C7			c38r15
  2532 48C7 00				.he 00
  2533 48C8			c38r16
  2534 48C8 00				.he 00
  2535 48C9			c38r17
  2536 48C9 00				.he 00
  2537 48CA			c38r18
  2538 48CA 00				.he 00
  2539 48CB			c38r19
  2540 48CB 00				.he 00
  2541 48CC			c38r20
  2542 48CC 00				.he 00
  2543 48CD			c38r21
  2544 48CD 00				.he 00
  2545 48CE			c38r22
  2546 48CE 00				.he 00
  2547 48CF			c38r23
  2548 48CF 00				.he 00
  2549 48D0			c38r24
  2550 48D0 00				.he 00
  2551 48D1			c38r25
  2552 48D1 00				.he 00
  2553 48D2			c38r26
  2554 48D2 00				.he 00
  2555 48D3			c38r27
  2556 48D3 00				.he 00
  2557 48D4			c38r28
  2558 48D4 00				.he 00
  2559 48D5			c38r29
  2560 48D5 00				.he 00
  2561
  2562 				; ------------	column #39
  2563
  2564 48D6			c39r0
  2565 48D6 00				.he 00
  2566 48D7			c39r1
  2567 48D7 00				.he 00
  2568 48D8			c39r2
  2569 48D8 00				.he 00
  2570 48D9			c39r3
  2571 48D9 00				.he 00
  2572 48DA			c39r4
  2573 48DA 00				.he 00
  2574 48DB			c39r5
  2575 48DB 00				.he 00
  2576 48DC			c39r6
  2577 48DC 00				.he 00
  2578 48DD			c39r7
  2579 48DD 00				.he 00
  2580 48DE			c39r8
  2581 48DE 00				.he 00
  2582 48DF			c39r9
  2583 48DF 00				.he 00
  2584 48E0			c39r10
  2585 48E0 00				.he 00
  2586 48E1			c39r11
  2587 48E1 00				.he 00
  2588 48E2			c39r12
  2589 48E2 00				.he 00
  2590 48E3			c39r13
  2591 48E3 00				.he 00
  2592 48E4			c39r14
  2593 48E4 00				.he 00
  2594 48E5			c39r15
  2595 48E5 00				.he 00
  2596 48E6			c39r16
  2597 48E6 00				.he 00
  2598 48E7			c39r17
  2599 48E7 00				.he 00
  2600 48E8			c39r18
  2601 48E8 00				.he 00
  2602 48E9			c39r19
  2603 48E9 00				.he 00
  2604 48EA			c39r20
  2605 48EA 00				.he 00
  2606 48EB			c39r21
  2607 48EB 00				.he 00
  2608 48EC			c39r22
  2609 48EC 00				.he 00
  2610 48ED			c39r23
  2611 48ED 00				.he 00
  2612 48EE			c39r24
  2613 48EE 00				.he 00
  2614 48EF			c39r25
  2615 48EF 00				.he 00
  2616 48F0			c39r26
  2617 48F0 00				.he 00
  2618 48F1			c39r27
  2619 48F1 00				.he 00
  2620 48F2			c39r28
  2621 48F2 00				.he 00
  2622 48F3			c39r29
  2623 48F3 00				.he 00
   653 48F4				icl 'mapa.pmf'
Source: D:\!Atari\Pang_2\tour_map\mapa.pmf
     1 				// Player-Missile Fade
     2 				// v2.5 (26.07.2010 - 12.08.2013)
     3
     4 					.ifndef pmg
     5 				pmg	= $0000
     6 					eif
     7
     8 = 0100			mapBits	= pmg+$100
     9
    10 					ert <mapBits<>0
    11
    12 				// -----------------------------------------------------------
    13
    14 48F4			.local	fade_chars
    15
    16 					color
    16 48F4 20 05 49		 JSR FADE_CHARS.COLOR
    17
    18 48F7 A2 00		cont	ldx #0
    19 48F9 A0 00			ldy #0
    20
    21 					ift FADECHR = 1
    22 					box #WIDTH #HEIGHT
    23 					eli FADECHR = 2
    24 					random
    25 					eli FADECHR = 3
    26 48FB 20 13 49			left_right
    27 					eli FADECHR = 4
    28 					plasma
    29 					eif
    30
    31 48FE A5 E7 C5 E7 F0 FC	wait	lda:cmp:req cloc
    32 4904 60				rts
    33
    34 4905			.proc	color (.byte a) .reg
    35 4905 F0 06			beq color0
    36
    37 4907 A9 B9 8D D4 49	color1	mva #{lda $ffff,y} plot.src
    38 490C 60				rts
    39
    40 490D A9 2C 8D D4 49	color0	mva #{bit $ffff} plot.src
    41 4912 60				rts
    42 				.endp
    43
    44 				// -----------------------------------------------------------
    45 				// -----------------------------------------------------------
    46
    47 					ift FADECHR = 3
    48 4913			.proc	left_right
    49
    50 4913 A9 14 8D 49 49		mva #WIDTH/2 cnt
    51
    52 4918 A9 00 8D 23 49		mva #0 x0
    53 491D A9 27 8D 28 49		mva #WIDTH-1 x1
    54
    55 4922 A0 00		loop	ldy #0
    56 = 4923			x0	equ *-1
    57 4924 20 3E 49			jsr column
    58
    59 4927 A0 00			ldy #0
    60 = 4928			x1	equ *-1
    61 4929 20 3E 49			jsr column
    62
    63 492C EE 23 49 EE 23 49		:2 inc x0
    64 4932 CE 28 49 CE 28 49		:2 dec x1
    65
    66 4938 CE 49 49			dec cnt
    67 493B D0 E5			bne loop
    68 493D 60				rts
    69
    70 493E A2 1A		column	ldx #HEIGHT-1
    71 4940 20 A4 49		draw	jsr plot
    72 4943 CA				dex
    73 4944 10 FA			bpl draw
    74 4946 4C FE 48			jmp wait
    75
    76 4949 00			cnt	brk
    77
    78 				.endp
    79 					eif
    80
    81 				// -----------------------------------------------------------
    82 				// -----------------------------------------------------------
    83
    84 494A			.proc	movfil	(.word fadr, fhlp, fcnt) .var
    85
    86 494A A0 00			LDY #0
    87 494C A6 E2			LDX fcnt+1
    88 494E F0 12			BEQ MD2
    89 4950 B1 E3		MD1	LDA (fadr),y	; move the remaining bytes
    90 4952 91 E5			STA (fhlp),y
    91 4954 A9 00			lda #SCHR	; fill
    92 4956 91 E3			sta (fadr),y
    93 4958 C8				INY
    94 4959 D0 F5			BNE MD1
    95 495B E6 E4			INC fadr+1
    96 495D E6 E6			INC fhlp+1
    97 495F CA				DEX
    98 4960 D0 EE			BNE MD1
    99 4962 A6 E1		MD2	LDX fcnt
   100 4964 F0 0C			BEQ MD4
   101 4966 B1 E3		MD3	LDA (fadr),y	; move the remaining bytes
   102 4968 91 E5			STA (fhlp),y
   103 496A A9 00			lda #SCHR	; fill
   104 496C 91 E3			sta (fadr),y
   105 496E C8				INY
   106 496F CA				DEX
   107 4970 D0 F4			BNE MD3
   108 4972 60			MD4	RTS
   109
   110 				.endp
   111
   112 				init	movfil	#scr #scrn #WIDTH*HEIGHT
   112 				 MWA #SCR FADR\ MWA #SCRN FHLP\ MWA #WIDTH*HEIGHT FCNT\ JSR FADE_CHARS.MOVFIL
   112 4973 A9 A0 85 E3 A9 36 +  MWA #SCR FADR
   112 497B A9 83 85 E5 A9 55 +  MWA #SCRN FHLP
   112 4983 A9 38 85 E1 A9 04 +  MWA #WIDTH*HEIGHT FCNT
   112 498B 20 4A 49		 JSR FADE_CHARS.MOVFIL
   113
   114 498E A0 00			ldy #0
   115 4990 98				tya
   116 4991 99 00 03		pmgClr	sta pmg+$300,y
   117 4994 99 00 04			sta pmg+$400,y
   118 4997 99 00 05			sta pmg+$500,y
   119 499A 99 00 06			sta pmg+$600,y
   120 499D 99 00 07			sta pmg+$700,y
   121 49A0 C8				iny
   122 49A1 D0 EE			bne pmgClr
   123 49A3 60				rts
   124
   125 				// -----------------------------------------------------------
   126
   127 49A4			.proc	plot (.byte x,y) .reg
   128
   129 49A4 8E DE 49			stx rx		; Y char position
   130 49A7 8C E0 49			sty ry		; X char position
   131
   132 49AA BD 4D 55 85 E3		mva lmul,x fadr
   133 49AF BD 68 55 85 E4		mva hmul,x fadr+1
   134
   135 49B4 A5 E3			lda fadr
   136 49B6 18 69 83			add <scrn
   137 49B9 8D D5 49		_sta0	sta src+1
   138 49BC A5 E4			lda fadr+1
   139 49BE 69 55			adc >scrn
   140 49C0 8D D6 49		_sta1	sta src+2
   141
   142 49C3 18 A5 E3 69 A0 8D + 	adw fadr #scr dst+1
   143
   144 49D2 A9 00			lda #SCHR
   145
   146 49D4 B9 FF FF		src	lda $ffff,y
   147 49D7 99 FF FF		dst	sta $ffff,y
   148
   149 49DA 20 E2 49			jsr pmg_plot
   150
   151 49DD A2 00			ldx #0
   152 = 49DE			rx	equ *-1
   153 49DF A0 00			ldy #0
   154 = 49E0			ry	equ *-1
   155
   156 49E1 60				rts
   157 					
   158 49E2			.local	pmg_plot
   159
   160 49E2 B9 9D 4B 85 E1		mva lcol,y fcnt
   161 49E7 B9 C5 4B 85 E2		mva hcol,y fcnt+1
   162
   163 49EC 8A				txa
   164 49ED 0A				asl @
   165 49EE A8				tay
   166
   167 49EF 0A				asl @
   168 49F0 0A				asl @
   169 49F1 18 69 08			add #8
   170 49F4 AA				tax
   171
   172 49F5 B1 E1			lda (fcnt),y
   173 49F7 85 E3			sta fadr
   174 49F9 C8				iny
   175 49FA B1 E1			lda (fcnt),y
   176 49FC 85 E4			sta fadr+1
   177
   178 49FE A0 00			ldy #0
   179
   180 4A00 B1 E3		loop	lda (fadr),y
   181 = 4A00			src	equ *-2
   182 4A02 8D 27 4A			sta tmp
   183
   184 4A05 F0 1F			beq stop
   185
   186 4A07 30 1F			jmi _mis
   187 4A09 0E 27 4A		p0	asl tmp
   188 4A0C 30 65			jmi _pl0
   189 4A0E 0E 27 4A		p1	asl tmp
   190 4A11 10 03 4C BE 4A		jmi _pl1
   191 4A16 0E 27 4A		p2	asl tmp
   192 4A19 10 03 4C 09 4B		jmi _pl2
   193 4A1E 0E 27 4A		p3	asl tmp
   194 4A21 10 03 4C 54 4B		jmi _pl3
   195
   196 4A26 60			stop	rts
   197
   198 4A27 00			tmp	brk
   199
   200 4A28			_mis	@plot $300
Macro: FADE_CHARS.PLOT.PMG_PLOT.@PLOT [Source: D:\!Atari\Pang_2\tour_map\mapa.pmf]
     2 4A28 C8				INY
     2 4A29 BD 00 03			LDA PMG+$300+#,X
     2 4A2C 51 E3			EOR (FADR),Y
     2 4A2E 9D 00 03			STA PMG+$300+#,X
     2 4A31 C8				INY
     2 4A32 BD 01 03			LDA PMG+$300+#,X
     2 4A35 51 E3			EOR (FADR),Y
     2 4A37 9D 01 03			STA PMG+$300+#,X
     2 4A3A C8				INY
     2 4A3B BD 02 03			LDA PMG+$300+#,X
     2 4A3E 51 E3			EOR (FADR),Y
     2 4A40 9D 02 03			STA PMG+$300+#,X
     2 4A43 C8				INY
     2 4A44 BD 03 03			LDA PMG+$300+#,X
     2 4A47 51 E3			EOR (FADR),Y
     2 4A49 9D 03 03			STA PMG+$300+#,X
     2 4A4C C8				INY
     2 4A4D BD 04 03			LDA PMG+$300+#,X
     2 4A50 51 E3			EOR (FADR),Y
     2 4A52 9D 04 03			STA PMG+$300+#,X
     2 4A55 C8				INY
     2 4A56 BD 05 03			LDA PMG+$300+#,X
     2 4A59 51 E3			EOR (FADR),Y
     2 4A5B 9D 05 03			STA PMG+$300+#,X
     2 4A5E C8				INY
     2 4A5F BD 06 03			LDA PMG+$300+#,X
     2 4A62 51 E3			EOR (FADR),Y
     2 4A64 9D 06 03			STA PMG+$300+#,X
     2 4A67 C8				INY
     2 4A68 BD 07 03			LDA PMG+$300+#,X
     2 4A6B 51 E3			EOR (FADR),Y
     2 4A6D 9D 07 03			STA PMG+$300+#,X
Source: D:\!Atari\Pang_2\tour_map\mapa.pmf
   201 4A70 4C 09 4A			jmp p0
   202 					
   203 4A73			_pl0	@plot $400
Macro: FADE_CHARS.PLOT.PMG_PLOT.@PLOT [Source: D:\!Atari\Pang_2\tour_map\mapa.pmf]
     2 4A73 C8				INY
     2 4A74 BD 00 04			LDA PMG+$400+#,X
     2 4A77 51 E3			EOR (FADR),Y
     2 4A79 9D 00 04			STA PMG+$400+#,X
     2 4A7C C8				INY
     2 4A7D BD 01 04			LDA PMG+$400+#,X
     2 4A80 51 E3			EOR (FADR),Y
     2 4A82 9D 01 04			STA PMG+$400+#,X
     2 4A85 C8				INY
     2 4A86 BD 02 04			LDA PMG+$400+#,X
     2 4A89 51 E3			EOR (FADR),Y
     2 4A8B 9D 02 04			STA PMG+$400+#,X
     2 4A8E C8				INY
     2 4A8F BD 03 04			LDA PMG+$400+#,X
     2 4A92 51 E3			EOR (FADR),Y
     2 4A94 9D 03 04			STA PMG+$400+#,X
     2 4A97 C8				INY
     2 4A98 BD 04 04			LDA PMG+$400+#,X
     2 4A9B 51 E3			EOR (FADR),Y
     2 4A9D 9D 04 04			STA PMG+$400+#,X
     2 4AA0 C8				INY
     2 4AA1 BD 05 04			LDA PMG+$400+#,X
     2 4AA4 51 E3			EOR (FADR),Y
     2 4AA6 9D 05 04			STA PMG+$400+#,X
     2 4AA9 C8				INY
     2 4AAA BD 06 04			LDA PMG+$400+#,X
     2 4AAD 51 E3			EOR (FADR),Y
     2 4AAF 9D 06 04			STA PMG+$400+#,X
     2 4AB2 C8				INY
     2 4AB3 BD 07 04			LDA PMG+$400+#,X
     2 4AB6 51 E3			EOR (FADR),Y
     2 4AB8 9D 07 04			STA PMG+$400+#,X
Source: D:\!Atari\Pang_2\tour_map\mapa.pmf
   204 4ABB 4C 0E 4A			jmp p1
   205
   206 4ABE			_pl1	@plot $500
Macro: FADE_CHARS.PLOT.PMG_PLOT.@PLOT [Source: D:\!Atari\Pang_2\tour_map\mapa.pmf]
     2 4ABE C8				INY
     2 4ABF BD 00 05			LDA PMG+$500+#,X
     2 4AC2 51 E3			EOR (FADR),Y
     2 4AC4 9D 00 05			STA PMG+$500+#,X
     2 4AC7 C8				INY
     2 4AC8 BD 01 05			LDA PMG+$500+#,X
     2 4ACB 51 E3			EOR (FADR),Y
     2 4ACD 9D 01 05			STA PMG+$500+#,X
     2 4AD0 C8				INY
     2 4AD1 BD 02 05			LDA PMG+$500+#,X
     2 4AD4 51 E3			EOR (FADR),Y
     2 4AD6 9D 02 05			STA PMG+$500+#,X
     2 4AD9 C8				INY
     2 4ADA BD 03 05			LDA PMG+$500+#,X
     2 4ADD 51 E3			EOR (FADR),Y
     2 4ADF 9D 03 05			STA PMG+$500+#,X
     2 4AE2 C8				INY
     2 4AE3 BD 04 05			LDA PMG+$500+#,X
     2 4AE6 51 E3			EOR (FADR),Y
     2 4AE8 9D 04 05			STA PMG+$500+#,X
     2 4AEB C8				INY
     2 4AEC BD 05 05			LDA PMG+$500+#,X
     2 4AEF 51 E3			EOR (FADR),Y
     2 4AF1 9D 05 05			STA PMG+$500+#,X
     2 4AF4 C8				INY
     2 4AF5 BD 06 05			LDA PMG+$500+#,X
     2 4AF8 51 E3			EOR (FADR),Y
     2 4AFA 9D 06 05			STA PMG+$500+#,X
     2 4AFD C8				INY
     2 4AFE BD 07 05			LDA PMG+$500+#,X
     2 4B01 51 E3			EOR (FADR),Y
     2 4B03 9D 07 05			STA PMG+$500+#,X
Source: D:\!Atari\Pang_2\tour_map\mapa.pmf
   207 4B06 4C 16 4A			jmp p2
   208
   209 4B09			_pl2	@plot $600
Macro: FADE_CHARS.PLOT.PMG_PLOT.@PLOT [Source: D:\!Atari\Pang_2\tour_map\mapa.pmf]
     2 4B09 C8				INY
     2 4B0A BD 00 06			LDA PMG+$600+#,X
     2 4B0D 51 E3			EOR (FADR),Y
     2 4B0F 9D 00 06			STA PMG+$600+#,X
     2 4B12 C8				INY
     2 4B13 BD 01 06			LDA PMG+$600+#,X
     2 4B16 51 E3			EOR (FADR),Y
     2 4B18 9D 01 06			STA PMG+$600+#,X
     2 4B1B C8				INY
     2 4B1C BD 02 06			LDA PMG+$600+#,X
     2 4B1F 51 E3			EOR (FADR),Y
     2 4B21 9D 02 06			STA PMG+$600+#,X
     2 4B24 C8				INY
     2 4B25 BD 03 06			LDA PMG+$600+#,X
     2 4B28 51 E3			EOR (FADR),Y
     2 4B2A 9D 03 06			STA PMG+$600+#,X
     2 4B2D C8				INY
     2 4B2E BD 04 06			LDA PMG+$600+#,X
     2 4B31 51 E3			EOR (FADR),Y
     2 4B33 9D 04 06			STA PMG+$600+#,X
     2 4B36 C8				INY
     2 4B37 BD 05 06			LDA PMG+$600+#,X
     2 4B3A 51 E3			EOR (FADR),Y
     2 4B3C 9D 05 06			STA PMG+$600+#,X
     2 4B3F C8				INY
     2 4B40 BD 06 06			LDA PMG+$600+#,X
     2 4B43 51 E3			EOR (FADR),Y
     2 4B45 9D 06 06			STA PMG+$600+#,X
     2 4B48 C8				INY
     2 4B49 BD 07 06			LDA PMG+$600+#,X
     2 4B4C 51 E3			EOR (FADR),Y
     2 4B4E 9D 07 06			STA PMG+$600+#,X
Source: D:\!Atari\Pang_2\tour_map\mapa.pmf
   210 4B51 4C 1E 4A			jmp p3
   211
   212 4B54			_pl3	@plot $700
Macro: FADE_CHARS.PLOT.PMG_PLOT.@PLOT [Source: D:\!Atari\Pang_2\tour_map\mapa.pmf]
     2 4B54 C8				INY
     2 4B55 BD 00 07			LDA PMG+$700+#,X
     2 4B58 51 E3			EOR (FADR),Y
     2 4B5A 9D 00 07			STA PMG+$700+#,X
     2 4B5D C8				INY
     2 4B5E BD 01 07			LDA PMG+$700+#,X
     2 4B61 51 E3			EOR (FADR),Y
     2 4B63 9D 01 07			STA PMG+$700+#,X
     2 4B66 C8				INY
     2 4B67 BD 02 07			LDA PMG+$700+#,X
     2 4B6A 51 E3			EOR (FADR),Y
     2 4B6C 9D 02 07			STA PMG+$700+#,X
     2 4B6F C8				INY
     2 4B70 BD 03 07			LDA PMG+$700+#,X
     2 4B73 51 E3			EOR (FADR),Y
     2 4B75 9D 03 07			STA PMG+$700+#,X
     2 4B78 C8				INY
     2 4B79 BD 04 07			LDA PMG+$700+#,X
     2 4B7C 51 E3			EOR (FADR),Y
     2 4B7E 9D 04 07			STA PMG+$700+#,X
     2 4B81 C8				INY
     2 4B82 BD 05 07			LDA PMG+$700+#,X
     2 4B85 51 E3			EOR (FADR),Y
     2 4B87 9D 05 07			STA PMG+$700+#,X
     2 4B8A C8				INY
     2 4B8B BD 06 07			LDA PMG+$700+#,X
     2 4B8E 51 E3			EOR (FADR),Y
     2 4B90 9D 06 07			STA PMG+$700+#,X
     2 4B93 C8				INY
     2 4B94 BD 07 07			LDA PMG+$700+#,X
     2 4B97 51 E3			EOR (FADR),Y
     2 4B99 9D 07 07			STA PMG+$700+#,X
Source: D:\!Atari\Pang_2\tour_map\mapa.pmf
   213 4B9C 60				rts
   214
   215 				.macro	@plot (player)
   216 					.rept 8
   217 					iny
   218 					lda pmg+%%player+#,x
   219 					eor (fadr),y
   220 					sta pmg+%%player+#,x
   221 					.endr
   222 				.endm
   223
   224 				.endl
   225
   226 4B9D ED 29 65 A1 DD 19 + lcol	:WIDTH dta l(col%%1)
   227 4BC5 4B 4C 4C 4C 4C 4D + hcol	:WIDTH dta h(col%%1)
   228
   229 					.rept WIDTH,#
   230 				COL%%1	DTA A(C%%1R0),A(C%%1R1),A(C%%1R2),A(C%%1R3),A(C%%1R4)
   231 					DTA A(C%%1R5),A(C%%1R6),A(C%%1R7),A(C%%1R8),A(C%%1R9)
   232 					DTA A(C%%1R10),A(C%%1R11),A(C%%1R12),A(C%%1R13),A(C%%1R14)
   233 					DTA A(C%%1R15),A(C%%1R16),A(C%%1R17),A(C%%1R18),A(C%%1R19)
   234 					DTA A(C%%1R20),A(C%%1R21),A(C%%1R22),A(C%%1R23),A(C%%1R24)
   235 					DTA A(C%%1R25),A(C%%1R26),A(C%%1R27),A(C%%1R28),A(C%%1R29)
   236 					.ENDR
   236 					.endr
Source: REPT
   230 4BED 0C 41 0D 41 0E 41 + COL0	DTA A(C0R0),A(C0R1),A(C0R2),A(C0R3),A(C0R4)
   230 4BF7 11 41 12 41 13 41 + 	DTA A(C0R5),A(C0R6),A(C0R7),A(C0R8),A(C0R9)
   230 4C01 16 41 17 41 18 41 + 	DTA A(C0R10),A(C0R11),A(C0R12),A(C0R13),A(C0R14)
   230 4C0B 1B 41 1C 41 1D 41 + 	DTA A(C0R15),A(C0R16),A(C0R17),A(C0R18),A(C0R19)
   230 4C15 20 41 21 41 2A 41 + 	DTA A(C0R20),A(C0R21),A(C0R22),A(C0R23),A(C0R24)
   230 4C1F 2D 41 2E 41 2F 41 + 	DTA A(C0R25),A(C0R26),A(C0R27),A(C0R28),A(C0R29)
   230 4C29 32 41 33 41 34 41 + COL1	DTA A(C1R0),A(C1R1),A(C1R2),A(C1R3),A(C1R4)
   230 4C33 37 41 38 41 39 41 + 	DTA A(C1R5),A(C1R6),A(C1R7),A(C1R8),A(C1R9)
   230 4C3D 3C 41 3D 41 3E 41 + 	DTA A(C1R10),A(C1R11),A(C1R12),A(C1R13),A(C1R14)
   230 4C47 41 41 42 41 43 41 + 	DTA A(C1R15),A(C1R16),A(C1R17),A(C1R18),A(C1R19)
   230 4C51 46 41 57 41 68 41 + 	DTA A(C1R20),A(C1R21),A(C1R22),A(C1R23),A(C1R24)
   230 4C5B 73 41 74 41 75 41 + 	DTA A(C1R25),A(C1R26),A(C1R27),A(C1R28),A(C1R29)
   230 4C65 78 41 79 41 7A 41 + COL2	DTA A(C2R0),A(C2R1),A(C2R2),A(C2R3),A(C2R4)
   230 4C6F 7D 41 7E 41 7F 41 + 	DTA A(C2R5),A(C2R6),A(C2R7),A(C2R8),A(C2R9)
   230 4C79 82 41 83 41 84 41 + 	DTA A(C2R10),A(C2R11),A(C2R12),A(C2R13),A(C2R14)
   230 4C83 87 41 88 41 89 41 + 	DTA A(C2R15),A(C2R16),A(C2R17),A(C2R18),A(C2R19)
   230 4C8D 8C 41 95 41 9E 41 + 	DTA A(C2R20),A(C2R21),A(C2R22),A(C2R23),A(C2R24)
   230 4C97 A9 41 AA 41 AB 41 + 	DTA A(C2R25),A(C2R26),A(C2R27),A(C2R28),A(C2R29)
   230 4CA1 AE 41 AF 41 B0 41 + COL3	DTA A(C3R0),A(C3R1),A(C3R2),A(C3R3),A(C3R4)
   230 4CAB B3 41 B4 41 B5 41 + 	DTA A(C3R5),A(C3R6),A(C3R7),A(C3R8),A(C3R9)
   230 4CB5 B8 41 B9 41 BA 41 + 	DTA A(C3R10),A(C3R11),A(C3R12),A(C3R13),A(C3R14)
   230 4CBF BD 41 BE 41 BF 41 + 	DTA A(C3R15),A(C3R16),A(C3R17),A(C3R18),A(C3R19)
   230 4CC9 C2 41 C3 41 C4 41 + 	DTA A(C3R20),A(C3R21),A(C3R22),A(C3R23),A(C3R24)
   230 4CD3 C7 41 C8 41 C9 41 + 	DTA A(C3R25),A(C3R26),A(C3R27),A(C3R28),A(C3R29)
   230 4CDD CC 41 CD 41 CE 41 + COL4	DTA A(C4R0),A(C4R1),A(C4R2),A(C4R3),A(C4R4)
   230 4CE7 D1 41 D2 41 D3 41 + 	DTA A(C4R5),A(C4R6),A(C4R7),A(C4R8),A(C4R9)
   230 4CF1 D6 41 D7 41 D8 41 + 	DTA A(C4R10),A(C4R11),A(C4R12),A(C4R13),A(C4R14)
   230 4CFB DB 41 DC 41 DD 41 + 	DTA A(C4R15),A(C4R16),A(C4R17),A(C4R18),A(C4R19)
   230 4D05 E0 41 E1 41 E2 41 + 	DTA A(C4R20),A(C4R21),A(C4R22),A(C4R23),A(C4R24)
   230 4D0F E5 41 E6 41 E7 41 + 	DTA A(C4R25),A(C4R26),A(C4R27),A(C4R28),A(C4R29)
   230 4D19 EA 41 EB 41 EC 41 + COL5	DTA A(C5R0),A(C5R1),A(C5R2),A(C5R3),A(C5R4)
   230 4D23 EF 41 F0 41 F1 41 + 	DTA A(C5R5),A(C5R6),A(C5R7),A(C5R8),A(C5R9)
   230 4D2D F4 41 F5 41 F6 41 + 	DTA A(C5R10),A(C5R11),A(C5R12),A(C5R13),A(C5R14)
   230 4D37 19 42 1A 42 1B 42 + 	DTA A(C5R15),A(C5R16),A(C5R17),A(C5R18),A(C5R19)
   230 4D41 1E 42 1F 42 20 42 + 	DTA A(C5R20),A(C5R21),A(C5R22),A(C5R23),A(C5R24)
   230 4D4B 23 42 24 42 25 42 + 	DTA A(C5R25),A(C5R26),A(C5R27),A(C5R28),A(C5R29)
   230 4D55 28 42 29 42 2A 42 + COL6	DTA A(C6R0),A(C6R1),A(C6R2),A(C6R3),A(C6R4)
   230 4D5F 2D 42 2E 42 2F 42 + 	DTA A(C6R5),A(C6R6),A(C6R7),A(C6R8),A(C6R9)
   230 4D69 32 42 33 42 34 42 + 	DTA A(C6R10),A(C6R11),A(C6R12),A(C6R13),A(C6R14)
   230 4D73 47 42 48 42 49 42 + 	DTA A(C6R15),A(C6R16),A(C6R17),A(C6R18),A(C6R19)
   230 4D7D 4C 42 4D 42 4E 42 + 	DTA A(C6R20),A(C6R21),A(C6R22),A(C6R23),A(C6R24)
   230 4D87 51 42 52 42 53 42 + 	DTA A(C6R25),A(C6R26),A(C6R27),A(C6R28),A(C6R29)
   230 4D91 56 42 57 42 58 42 + COL7	DTA A(C7R0),A(C7R1),A(C7R2),A(C7R3),A(C7R4)
   230 4D9B 5B 42 5C 42 5D 42 + 	DTA A(C7R5),A(C7R6),A(C7R7),A(C7R8),A(C7R9)
   230 4DA5 60 42 61 42 62 42 + 	DTA A(C7R10),A(C7R11),A(C7R12),A(C7R13),A(C7R14)
   230 4DAF 65 42 66 42 67 42 + 	DTA A(C7R15),A(C7R16),A(C7R17),A(C7R18),A(C7R19)
   230 4DB9 6A 42 6B 42 6C 42 + 	DTA A(C7R20),A(C7R21),A(C7R22),A(C7R23),A(C7R24)
   230 4DC3 77 42 88 42 91 42 + 	DTA A(C7R25),A(C7R26),A(C7R27),A(C7R28),A(C7R29)
   230 4DCD 94 42 95 42 96 42 + COL8	DTA A(C8R0),A(C8R1),A(C8R2),A(C8R3),A(C8R4)
   230 4DD7 99 42 9A 42 9B 42 + 	DTA A(C8R5),A(C8R6),A(C8R7),A(C8R8),A(C8R9)
   230 4DE1 9E 42 9F 42 A0 42 + 	DTA A(C8R10),A(C8R11),A(C8R12),A(C8R13),A(C8R14)
   230 4DEB A3 42 A4 42 A5 42 + 	DTA A(C8R15),A(C8R16),A(C8R17),A(C8R18),A(C8R19)
   230 4DF5 A8 42 A9 42 AA 42 + 	DTA A(C8R20),A(C8R21),A(C8R22),A(C8R23),A(C8R24)
   230 4DFF BD 42 CE 42 D7 42 + 	DTA A(C8R25),A(C8R26),A(C8R27),A(C8R28),A(C8R29)
   230 4E09 DA 42 DB 42 DC 42 + COL9	DTA A(C9R0),A(C9R1),A(C9R2),A(C9R3),A(C9R4)
   230 4E13 DF 42 E0 42 E1 42 + 	DTA A(C9R5),A(C9R6),A(C9R7),A(C9R8),A(C9R9)
   230 4E1D E4 42 E5 42 E6 42 + 	DTA A(C9R10),A(C9R11),A(C9R12),A(C9R13),A(C9R14)
   230 4E27 E9 42 EA 42 EB 42 + 	DTA A(C9R15),A(C9R16),A(C9R17),A(C9R18),A(C9R19)
   230 4E31 EE 42 EF 42 F0 42 + 	DTA A(C9R20),A(C9R21),A(C9R22),A(C9R23),A(C9R24)
   230 4E3B F3 42 FC 42 FD 42 + 	DTA A(C9R25),A(C9R26),A(C9R27),A(C9R28),A(C9R29)
   230 4E45 00 43 01 43 02 43 + COL10	DTA A(C10R0),A(C10R1),A(C10R2),A(C10R3),A(C10R4)
   230 4E4F 05 43 06 43 07 43 + 	DTA A(C10R5),A(C10R6),A(C10R7),A(C10R8),A(C10R9)
   230 4E59 0A 43 0B 43 0C 43 + 	DTA A(C10R10),A(C10R11),A(C10R12),A(C10R13),A(C10R14)
   230 4E63 0F 43 18 43 29 43 + 	DTA A(C10R15),A(C10R16),A(C10R17),A(C10R18),A(C10R19)
   230 4E6D 34 43 35 43 36 43 + 	DTA A(C10R20),A(C10R21),A(C10R22),A(C10R23),A(C10R24)
   230 4E77 39 43 3A 43 3B 43 + 	DTA A(C10R25),A(C10R26),A(C10R27),A(C10R28),A(C10R29)
   230 4E81 3E 43 3F 43 40 43 + COL11	DTA A(C11R0),A(C11R1),A(C11R2),A(C11R3),A(C11R4)
   230 4E8B 43 43 44 43 45 43 + 	DTA A(C11R5),A(C11R6),A(C11R7),A(C11R8),A(C11R9)
   230 4E95 48 43 49 43 4A 43 + 	DTA A(C11R10),A(C11R11),A(C11R12),A(C11R13),A(C11R14)
   230 4E9F 4D 43 56 43 5F 43 + 	DTA A(C11R15),A(C11R16),A(C11R17),A(C11R18),A(C11R19)
   230 4EA9 6A 43 6B 43 6C 43 + 	DTA A(C11R20),A(C11R21),A(C11R22),A(C11R23),A(C11R24)
   230 4EB3 6F 43 70 43 71 43 + 	DTA A(C11R25),A(C11R26),A(C11R27),A(C11R28),A(C11R29)
   230 4EBD 74 43 75 43 76 43 + COL12	DTA A(C12R0),A(C12R1),A(C12R2),A(C12R3),A(C12R4)
   230 4EC7 79 43 7A 43 7B 43 + 	DTA A(C12R5),A(C12R6),A(C12R7),A(C12R8),A(C12R9)
   230 4ED1 7E 43 8F 43 98 43 + 	DTA A(C12R10),A(C12R11),A(C12R12),A(C12R13),A(C12R14)
   230 4EDB 9B 43 9C 43 9D 43 + 	DTA A(C12R15),A(C12R16),A(C12R17),A(C12R18),A(C12R19)
   230 4EE5 A0 43 A1 43 A2 43 + 	DTA A(C12R20),A(C12R21),A(C12R22),A(C12R23),A(C12R24)
   230 4EEF A5 43 A6 43 A7 43 + 	DTA A(C12R25),A(C12R26),A(C12R27),A(C12R28),A(C12R29)
   230 4EF9 AA 43 AB 43 AC 43 + COL13	DTA A(C13R0),A(C13R1),A(C13R2),A(C13R3),A(C13R4)
   230 4F03 AF 43 B0 43 B1 43 + 	DTA A(C13R5),A(C13R6),A(C13R7),A(C13R8),A(C13R9)
   230 4F0D B4 43 C5 43 CE 43 + 	DTA A(C13R10),A(C13R11),A(C13R12),A(C13R13),A(C13R14)
   230 4F17 D1 43 D2 43 D3 43 + 	DTA A(C13R15),A(C13R16),A(C13R17),A(C13R18),A(C13R19)
   230 4F21 D6 43 D7 43 D8 43 + 	DTA A(C13R20),A(C13R21),A(C13R22),A(C13R23),A(C13R24)
   230 4F2B DB 43 DC 43 DD 43 + 	DTA A(C13R25),A(C13R26),A(C13R27),A(C13R28),A(C13R29)
   230 4F35 E0 43 E1 43 E2 43 + COL14	DTA A(C14R0),A(C14R1),A(C14R2),A(C14R3),A(C14R4)
   230 4F3F E5 43 E6 43 E7 43 + 	DTA A(C14R5),A(C14R6),A(C14R7),A(C14R8),A(C14R9)
   230 4F49 EA 43 F3 43 FC 43 + 	DTA A(C14R10),A(C14R11),A(C14R12),A(C14R13),A(C14R14)
   230 4F53 FF 43 00 44 01 44 + 	DTA A(C14R15),A(C14R16),A(C14R17),A(C14R18),A(C14R19)
   230 4F5D 04 44 05 44 06 44 + 	DTA A(C14R20),A(C14R21),A(C14R22),A(C14R23),A(C14R24)
   230 4F67 09 44 0A 44 0B 44 + 	DTA A(C14R25),A(C14R26),A(C14R27),A(C14R28),A(C14R29)
   230 4F71 0E 44 0F 44 10 44 + COL15	DTA A(C15R0),A(C15R1),A(C15R2),A(C15R3),A(C15R4)
   230 4F7B 1B 44 24 44 25 44 + 	DTA A(C15R5),A(C15R6),A(C15R7),A(C15R8),A(C15R9)
   230 4F85 28 44 29 44 2A 44 + 	DTA A(C15R10),A(C15R11),A(C15R12),A(C15R13),A(C15R14)
   230 4F8F 2D 44 2E 44 2F 44 + 	DTA A(C15R15),A(C15R16),A(C15R17),A(C15R18),A(C15R19)
   230 4F99 32 44 33 44 34 44 + 	DTA A(C15R20),A(C15R21),A(C15R22),A(C15R23),A(C15R24)
   230 4FA3 37 44 38 44 39 44 + 	DTA A(C15R25),A(C15R26),A(C15R27),A(C15R28),A(C15R29)
   230 4FAD 3C 44 3D 44 3E 44 + COL16	DTA A(C16R0),A(C16R1),A(C16R2),A(C16R3),A(C16R4)
   230 4FB7 51 44 62 44 63 44 + 	DTA A(C16R5),A(C16R6),A(C16R7),A(C16R8),A(C16R9)
   230 4FC1 66 44 67 44 68 44 + 	DTA A(C16R10),A(C16R11),A(C16R12),A(C16R13),A(C16R14)
   230 4FCB 6B 44 6C 44 6D 44 + 	DTA A(C16R15),A(C16R16),A(C16R17),A(C16R18),A(C16R19)
   230 4FD5 70 44 71 44 72 44 + 	DTA A(C16R20),A(C16R21),A(C16R22),A(C16R23),A(C16R24)
   230 4FDF 75 44 76 44 77 44 + 	DTA A(C16R25),A(C16R26),A(C16R27),A(C16R28),A(C16R29)
   230 4FE9 7A 44 7B 44 7C 44 + COL17	DTA A(C17R0),A(C17R1),A(C17R2),A(C17R3),A(C17R4)
   230 4FF3 87 44 90 44 91 44 + 	DTA A(C17R5),A(C17R6),A(C17R7),A(C17R8),A(C17R9)
   230 4FFD B4 44 B5 44 B6 44 + 	DTA A(C17R10),A(C17R11),A(C17R12),A(C17R13),A(C17R14)
   230 5007 B9 44 BA 44 BB 44 + 	DTA A(C17R15),A(C17R16),A(C17R17),A(C17R18),A(C17R19)
   230 5011 BE 44 BF 44 C0 44 + 	DTA A(C17R20),A(C17R21),A(C17R22),A(C17R23),A(C17R24)
   230 501B C3 44 C4 44 C5 44 + 	DTA A(C17R25),A(C17R26),A(C17R27),A(C17R28),A(C17R29)
   230 5025 C8 44 C9 44 CA 44 + COL18	DTA A(C18R0),A(C18R1),A(C18R2),A(C18R3),A(C18R4)
   230 502F CD 44 CE 44 CF 44 + 	DTA A(C18R5),A(C18R6),A(C18R7),A(C18R8),A(C18R9)
   230 5039 EA 44 EB 44 EC 44 + 	DTA A(C18R10),A(C18R11),A(C18R12),A(C18R13),A(C18R14)
   230 5043 EF 44 F0 44 F1 44 + 	DTA A(C18R15),A(C18R16),A(C18R17),A(C18R18),A(C18R19)
   230 504D FC 44 FD 44 FE 44 + 	DTA A(C18R20),A(C18R21),A(C18R22),A(C18R23),A(C18R24)
   230 5057 01 45 02 45 03 45 + 	DTA A(C18R25),A(C18R26),A(C18R27),A(C18R28),A(C18R29)
   230 5061 06 45 07 45 08 45 + COL19	DTA A(C19R0),A(C19R1),A(C19R2),A(C19R3),A(C19R4)
   230 506B 0B 45 0C 45 0D 45 + 	DTA A(C19R5),A(C19R6),A(C19R7),A(C19R8),A(C19R9)
   230 5075 20 45 21 45 22 45 + 	DTA A(C19R10),A(C19R11),A(C19R12),A(C19R13),A(C19R14)
   230 507F 25 45 26 45 27 45 + 	DTA A(C19R15),A(C19R16),A(C19R17),A(C19R18),A(C19R19)
   230 5089 4A 45 53 45 54 45 + 	DTA A(C19R20),A(C19R21),A(C19R22),A(C19R23),A(C19R24)
   230 5093 57 45 58 45 59 45 + 	DTA A(C19R25),A(C19R26),A(C19R27),A(C19R28),A(C19R29)
   230 509D 5C 45 5D 45 5E 45 + COL20	DTA A(C20R0),A(C20R1),A(C20R2),A(C20R3),A(C20R4)
   230 50A7 61 45 6A 45 7B 45 + 	DTA A(C20R5),A(C20R6),A(C20R7),A(C20R8),A(C20R9)
   230 50B1 86 45 87 45 88 45 + 	DTA A(C20R10),A(C20R11),A(C20R12),A(C20R13),A(C20R14)
   230 50BB 8B 45 8C 45 8D 45 + 	DTA A(C20R15),A(C20R16),A(C20R17),A(C20R18),A(C20R19)
   230 50C5 A0 45 A9 45 AA 45 + 	DTA A(C20R20),A(C20R21),A(C20R22),A(C20R23),A(C20R24)
   230 50CF AD 45 AE 45 AF 45 + 	DTA A(C20R25),A(C20R26),A(C20R27),A(C20R28),A(C20R29)
   230 50D9 B2 45 B3 45 B4 45 + COL21	DTA A(C21R0),A(C21R1),A(C21R2),A(C21R3),A(C21R4)
   230 50E3 B7 45 C8 45 D9 45 + 	DTA A(C21R5),A(C21R6),A(C21R7),A(C21R8),A(C21R9)
   230 50ED E4 45 E5 45 E6 45 + 	DTA A(C21R10),A(C21R11),A(C21R12),A(C21R13),A(C21R14)
   230 50F7 E9 45 EA 45 EB 45 + 	DTA A(C21R15),A(C21R16),A(C21R17),A(C21R18),A(C21R19)
   230 5101 EE 45 EF 45 F0 45 + 	DTA A(C21R20),A(C21R21),A(C21R22),A(C21R23),A(C21R24)
   230 510B F3 45 F4 45 F5 45 + 	DTA A(C21R25),A(C21R26),A(C21R27),A(C21R28),A(C21R29)
   230 5115 F8 45 F9 45 FA 45 + COL22	DTA A(C22R0),A(C22R1),A(C22R2),A(C22R3),A(C22R4)
   230 511F FD 45 06 46 0F 46 + 	DTA A(C22R5),A(C22R6),A(C22R7),A(C22R8),A(C22R9)
   230 5129 1A 46 1B 46 1C 46 + 	DTA A(C22R10),A(C22R11),A(C22R12),A(C22R13),A(C22R14)
   230 5133 1F 46 20 46 21 46 + 	DTA A(C22R15),A(C22R16),A(C22R17),A(C22R18),A(C22R19)
   230 513D 24 46 25 46 26 46 + 	DTA A(C22R20),A(C22R21),A(C22R22),A(C22R23),A(C22R24)
   230 5147 29 46 2A 46 2B 46 + 	DTA A(C22R25),A(C22R26),A(C22R27),A(C22R28),A(C22R29)
   230 5151 2E 46 2F 46 30 46 + COL23	DTA A(C23R0),A(C23R1),A(C23R2),A(C23R3),A(C23R4)
   230 515B 33 46 34 46 35 46 + 	DTA A(C23R5),A(C23R6),A(C23R7),A(C23R8),A(C23R9)
   230 5165 38 46 39 46 3A 46 + 	DTA A(C23R10),A(C23R11),A(C23R12),A(C23R13),A(C23R14)
   230 516F 3D 46 3E 46 3F 46 + 	DTA A(C23R15),A(C23R16),A(C23R17),A(C23R18),A(C23R19)
   230 5179 42 46 43 46 44 46 + 	DTA A(C23R20),A(C23R21),A(C23R22),A(C23R23),A(C23R24)
   230 5183 47 46 48 46 49 46 + 	DTA A(C23R25),A(C23R26),A(C23R27),A(C23R28),A(C23R29)
   230 518D 4C 46 4D 46 4E 46 + COL24	DTA A(C24R0),A(C24R1),A(C24R2),A(C24R3),A(C24R4)
   230 5197 51 46 52 46 53 46 + 	DTA A(C24R5),A(C24R6),A(C24R7),A(C24R8),A(C24R9)
   230 51A1 56 46 57 46 58 46 + 	DTA A(C24R10),A(C24R11),A(C24R12),A(C24R13),A(C24R14)
   230 51AB 5B 46 5C 46 5D 46 + 	DTA A(C24R15),A(C24R16),A(C24R17),A(C24R18),A(C24R19)
   230 51B5 60 46 61 46 62 46 + 	DTA A(C24R20),A(C24R21),A(C24R22),A(C24R23),A(C24R24)
   230 51BF 65 46 66 46 67 46 + 	DTA A(C24R25),A(C24R26),A(C24R27),A(C24R28),A(C24R29)
   230 51C9 6A 46 6B 46 6C 46 + COL25	DTA A(C25R0),A(C25R1),A(C25R2),A(C25R3),A(C25R4)
   230 51D3 6F 46 70 46 71 46 + 	DTA A(C25R5),A(C25R6),A(C25R7),A(C25R8),A(C25R9)
   230 51DD 74 46 75 46 76 46 + 	DTA A(C25R10),A(C25R11),A(C25R12),A(C25R13),A(C25R14)
   230 51E7 79 46 7A 46 7B 46 + 	DTA A(C25R15),A(C25R16),A(C25R17),A(C25R18),A(C25R19)
   230 51F1 7E 46 7F 46 80 46 + 	DTA A(C25R20),A(C25R21),A(C25R22),A(C25R23),A(C25R24)
   230 51FB 83 46 84 46 85 46 + 	DTA A(C25R25),A(C25R26),A(C25R27),A(C25R28),A(C25R29)
   230 5205 88 46 89 46 8A 46 + COL26	DTA A(C26R0),A(C26R1),A(C26R2),A(C26R3),A(C26R4)
   230 520F 8D 46 8E 46 8F 46 + 	DTA A(C26R5),A(C26R6),A(C26R7),A(C26R8),A(C26R9)
   230 5219 92 46 93 46 94 46 + 	DTA A(C26R10),A(C26R11),A(C26R12),A(C26R13),A(C26R14)
   230 5223 97 46 98 46 99 46 + 	DTA A(C26R15),A(C26R16),A(C26R17),A(C26R18),A(C26R19)
   230 522D 9C 46 9D 46 9E 46 + 	DTA A(C26R20),A(C26R21),A(C26R22),A(C26R23),A(C26R24)
   230 5237 A1 46 A2 46 A3 46 + 	DTA A(C26R25),A(C26R26),A(C26R27),A(C26R28),A(C26R29)
   230 5241 A6 46 A7 46 A8 46 + COL27	DTA A(C27R0),A(C27R1),A(C27R2),A(C27R3),A(C27R4)
   230 524B AB 46 AC 46 AD 46 + 	DTA A(C27R5),A(C27R6),A(C27R7),A(C27R8),A(C27R9)
   230 5255 B0 46 B1 46 B2 46 + 	DTA A(C27R10),A(C27R11),A(C27R12),A(C27R13),A(C27R14)
   230 525F CD 46 CE 46 CF 46 + 	DTA A(C27R15),A(C27R16),A(C27R17),A(C27R18),A(C27R19)
   230 5269 D2 46 D3 46 D4 46 + 	DTA A(C27R20),A(C27R21),A(C27R22),A(C27R23),A(C27R24)
   230 5273 D7 46 D8 46 D9 46 + 	DTA A(C27R25),A(C27R26),A(C27R27),A(C27R28),A(C27R29)
   230 527D DC 46 DD 46 DE 46 + COL28	DTA A(C28R0),A(C28R1),A(C28R2),A(C28R3),A(C28R4)
   230 5287 E1 46 E2 46 E3 46 + 	DTA A(C28R5),A(C28R6),A(C28R7),A(C28R8),A(C28R9)
   230 5291 E6 46 E7 46 E8 46 + 	DTA A(C28R10),A(C28R11),A(C28R12),A(C28R13),A(C28R14)
   230 529B 03 47 0C 47 0D 47 + 	DTA A(C28R15),A(C28R16),A(C28R17),A(C28R18),A(C28R19)
   230 52A5 10 47 11 47 12 47 + 	DTA A(C28R20),A(C28R21),A(C28R22),A(C28R23),A(C28R24)
   230 52AF 15 47 16 47 17 47 + 	DTA A(C28R25),A(C28R26),A(C28R27),A(C28R28),A(C28R29)
   230 52B9 1A 47 1B 47 1C 47 + COL29	DTA A(C29R0),A(C29R1),A(C29R2),A(C29R3),A(C29R4)
   230 52C3 1F 47 20 47 21 47 + 	DTA A(C29R5),A(C29R6),A(C29R7),A(C29R8),A(C29R9)
   230 52CD 24 47 25 47 26 47 + 	DTA A(C29R10),A(C29R11),A(C29R12),A(C29R13),A(C29R14)
   230 52D7 39 47 3A 47 3B 47 + 	DTA A(C29R15),A(C29R16),A(C29R17),A(C29R18),A(C29R19)
   230 52E1 3E 47 3F 47 40 47 + 	DTA A(C29R20),A(C29R21),A(C29R22),A(C29R23),A(C29R24)
   230 52EB 43 47 44 47 45 47 + 	DTA A(C29R25),A(C29R26),A(C29R27),A(C29R28),A(C29R29)
   230 52F5 48 47 49 47 4A 47 + COL30	DTA A(C30R0),A(C30R1),A(C30R2),A(C30R3),A(C30R4)
   230 52FF 4D 47 4E 47 4F 47 + 	DTA A(C30R5),A(C30R6),A(C30R7),A(C30R8),A(C30R9)
   230 5309 52 47 53 47 54 47 + 	DTA A(C30R10),A(C30R11),A(C30R12),A(C30R13),A(C30R14)
   230 5313 57 47 58 47 59 47 + 	DTA A(C30R15),A(C30R16),A(C30R17),A(C30R18),A(C30R19)
   230 531D 5C 47 5D 47 5E 47 + 	DTA A(C30R20),A(C30R21),A(C30R22),A(C30R23),A(C30R24)
   230 5327 61 47 62 47 63 47 + 	DTA A(C30R25),A(C30R26),A(C30R27),A(C30R28),A(C30R29)
   230 5331 66 47 67 47 68 47 + COL31	DTA A(C31R0),A(C31R1),A(C31R2),A(C31R3),A(C31R4)
   230 533B 6B 47 6C 47 6D 47 + 	DTA A(C31R5),A(C31R6),A(C31R7),A(C31R8),A(C31R9)
   230 5345 70 47 71 47 72 47 + 	DTA A(C31R10),A(C31R11),A(C31R12),A(C31R13),A(C31R14)
   230 534F 75 47 76 47 77 47 + 	DTA A(C31R15),A(C31R16),A(C31R17),A(C31R18),A(C31R19)
   230 5359 7A 47 7B 47 7C 47 + 	DTA A(C31R20),A(C31R21),A(C31R22),A(C31R23),A(C31R24)
   230 5363 7F 47 80 47 81 47 + 	DTA A(C31R25),A(C31R26),A(C31R27),A(C31R28),A(C31R29)
   230 536D 84 47 85 47 86 47 + COL32	DTA A(C32R0),A(C32R1),A(C32R2),A(C32R3),A(C32R4)
   230 5377 89 47 8A 47 8B 47 + 	DTA A(C32R5),A(C32R6),A(C32R7),A(C32R8),A(C32R9)
   230 5381 8E 47 8F 47 90 47 + 	DTA A(C32R10),A(C32R11),A(C32R12),A(C32R13),A(C32R14)
   230 538B 93 47 94 47 95 47 + 	DTA A(C32R15),A(C32R16),A(C32R17),A(C32R18),A(C32R19)
   230 5395 98 47 99 47 9A 47 + 	DTA A(C32R20),A(C32R21),A(C32R22),A(C32R23),A(C32R24)
   230 539F 9D 47 9E 47 9F 47 + 	DTA A(C32R25),A(C32R26),A(C32R27),A(C32R28),A(C32R29)
   230 53A9 A2 47 A3 47 A4 47 + COL33	DTA A(C33R0),A(C33R1),A(C33R2),A(C33R3),A(C33R4)
   230 53B3 A7 47 A8 47 A9 47 + 	DTA A(C33R5),A(C33R6),A(C33R7),A(C33R8),A(C33R9)
   230 53BD AC 47 AD 47 AE 47 + 	DTA A(C33R10),A(C33R11),A(C33R12),A(C33R13),A(C33R14)
   230 53C7 B1 47 B2 47 B3 47 + 	DTA A(C33R15),A(C33R16),A(C33R17),A(C33R18),A(C33R19)
   230 53D1 B6 47 B7 47 B8 47 + 	DTA A(C33R20),A(C33R21),A(C33R22),A(C33R23),A(C33R24)
   230 53DB BB 47 BC 47 BD 47 + 	DTA A(C33R25),A(C33R26),A(C33R27),A(C33R28),A(C33R29)
   230 53E5 C0 47 C1 47 C2 47 + COL34	DTA A(C34R0),A(C34R1),A(C34R2),A(C34R3),A(C34R4)
   230 53EF C5 47 C6 47 C7 47 + 	DTA A(C34R5),A(C34R6),A(C34R7),A(C34R8),A(C34R9)
   230 53F9 CA 47 CB 47 CC 47 + 	DTA A(C34R10),A(C34R11),A(C34R12),A(C34R13),A(C34R14)
   230 5403 CF 47 D0 47 D1 47 + 	DTA A(C34R15),A(C34R16),A(C34R17),A(C34R18),A(C34R19)
   230 540D D4 47 D5 47 D6 47 + 	DTA A(C34R20),A(C34R21),A(C34R22),A(C34R23),A(C34R24)
   230 5417 D9 47 DA 47 DB 47 + 	DTA A(C34R25),A(C34R26),A(C34R27),A(C34R28),A(C34R29)
   230 5421 DE 47 DF 47 E0 47 + COL35	DTA A(C35R0),A(C35R1),A(C35R2),A(C35R3),A(C35R4)
   230 542B E3 47 E4 47 E5 47 + 	DTA A(C35R5),A(C35R6),A(C35R7),A(C35R8),A(C35R9)
   230 5435 E8 47 F9 47 02 48 + 	DTA A(C35R10),A(C35R11),A(C35R12),A(C35R13),A(C35R14)
   230 543F 05 48 06 48 07 48 + 	DTA A(C35R15),A(C35R16),A(C35R17),A(C35R18),A(C35R19)
   230 5449 0A 48 0B 48 0C 48 + 	DTA A(C35R20),A(C35R21),A(C35R22),A(C35R23),A(C35R24)
   230 5453 0F 48 10 48 11 48 + 	DTA A(C35R25),A(C35R26),A(C35R27),A(C35R28),A(C35R29)
   230 545D 14 48 15 48 16 48 + COL36	DTA A(C36R0),A(C36R1),A(C36R2),A(C36R3),A(C36R4)
   230 5467 19 48 1A 48 1B 48 + 	DTA A(C36R5),A(C36R6),A(C36R7),A(C36R8),A(C36R9)
   230 5471 1E 48 2F 48 38 48 + 	DTA A(C36R10),A(C36R11),A(C36R12),A(C36R13),A(C36R14)
   230 547B 3B 48 3C 48 3D 48 + 	DTA A(C36R15),A(C36R16),A(C36R17),A(C36R18),A(C36R19)
   230 5485 40 48 41 48 42 48 + 	DTA A(C36R20),A(C36R21),A(C36R22),A(C36R23),A(C36R24)
   230 548F 6D 48 6E 48 6F 48 + 	DTA A(C36R25),A(C36R26),A(C36R27),A(C36R28),A(C36R29)
   230 5499 72 48 73 48 74 48 + COL37	DTA A(C37R0),A(C37R1),A(C37R2),A(C37R3),A(C37R4)
   230 54A3 77 48 78 48 79 48 + 	DTA A(C37R5),A(C37R6),A(C37R7),A(C37R8),A(C37R9)
   230 54AD 7C 48 85 48 8E 48 + 	DTA A(C37R10),A(C37R11),A(C37R12),A(C37R13),A(C37R14)
   230 54B7 91 48 92 48 93 48 + 	DTA A(C37R15),A(C37R16),A(C37R17),A(C37R18),A(C37R19)
   230 54C1 96 48 97 48 98 48 + 	DTA A(C37R20),A(C37R21),A(C37R22),A(C37R23),A(C37R24)
   230 54CB B3 48 B4 48 B5 48 + 	DTA A(C37R25),A(C37R26),A(C37R27),A(C37R28),A(C37R29)
   230 54D5 B8 48 B9 48 BA 48 + COL38	DTA A(C38R0),A(C38R1),A(C38R2),A(C38R3),A(C38R4)
   230 54DF BD 48 BE 48 BF 48 + 	DTA A(C38R5),A(C38R6),A(C38R7),A(C38R8),A(C38R9)
   230 54E9 C2 48 C3 48 C4 48 + 	DTA A(C38R10),A(C38R11),A(C38R12),A(C38R13),A(C38R14)
   230 54F3 C7 48 C8 48 C9 48 + 	DTA A(C38R15),A(C38R16),A(C38R17),A(C38R18),A(C38R19)
   230 54FD CC 48 CD 48 CE 48 + 	DTA A(C38R20),A(C38R21),A(C38R22),A(C38R23),A(C38R24)
   230 5507 D1 48 D2 48 D3 48 + 	DTA A(C38R25),A(C38R26),A(C38R27),A(C38R28),A(C38R29)
   230 5511 D6 48 D7 48 D8 48 + COL39	DTA A(C39R0),A(C39R1),A(C39R2),A(C39R3),A(C39R4)
   230 551B DB 48 DC 48 DD 48 + 	DTA A(C39R5),A(C39R6),A(C39R7),A(C39R8),A(C39R9)
   230 5525 E0 48 E1 48 E2 48 + 	DTA A(C39R10),A(C39R11),A(C39R12),A(C39R13),A(C39R14)
   230 552F E5 48 E6 48 E7 48 + 	DTA A(C39R15),A(C39R16),A(C39R17),A(C39R18),A(C39R19)
   230 5539 EA 48 EB 48 EC 48 + 	DTA A(C39R20),A(C39R21),A(C39R22),A(C39R23),A(C39R24)
   230 5543 EF 48 F0 48 F1 48 + 	DTA A(C39R25),A(C39R26),A(C39R27),A(C39R28),A(C39R29)
Source: D:\!Atari\Pang_2\tour_map\mapa.pmf
   237
   238 554D 00 28 50 78 A0 C8 + lmul	:HEIGHT dta l(#*WIDTH)
   239 5568 00 00 00 00 00 00 + hmul	:HEIGHT dta h(#*WIDTH)
   240 				.endp
   241
   242 				.endl
   243
   244 = 5583			scrn	.ds WIDTH*HEIGHT
   654
   655 59BB-5AB8> A9 E8 8D AD + 	.link 'line.obx'
   656
   657 				// --------------------------------------------------------------------------------------
   658
   659 5AB8 05			nstage	dta 5			; numer levelu 0..11
   660
   661 				// --------------------------------------------------------------------------------------
   662
   663
   664 				.print *
   664 				$5AB9
   665
   666 02E0-02E1> D8 3A			run main
   667 				; ---
   668
